(lp0
Vroot://cms-xrdr.private.lo:2094//xrd/store/data/Run2016H/DoubleMuon/NANOAOD/Nano25Oct2019-v1/40000/B381147D-308E-CE44-A83B-EDE7E2B34978.root
p1
aVroot://cms-xrdr.private.lo:2094//xrd/store/data/Run2016H/DoubleMuon/NANOAOD/Nano25Oct2019-v1/40000/B4688A7D-F532-7A43-B4BF-EED305960D8B.root
p2
aVroot://cms-xrdr.private.lo:2094//xrd/store/data/Run2016H/DoubleMuon/NANOAOD/Nano25Oct2019-v1/40000/B7D2E09A-3581-2248-A87E-112163418FDC.root
p3
aVroot://cms-xrdr.private.lo:2094//xrd/store/data/Run2016H/DoubleMuon/NANOAOD/Nano25Oct2019-v1/40000/B99B5F72-6131-E744-82B4-1491BEB1375D.root
p4
aVroot://cms-xrdr.private.lo:2094//xrd/store/data/Run2016H/DoubleMuon/NANOAOD/Nano25Oct2019-v1/40000/BC521071-EEAD-9D4A-A7BC-70ACE0A2FE0D.root
p5
a.