(lp0
Vroot://cms-xrdr.private.lo:2094//xrd/store/data/Run2016H/SingleMuon/NANOAOD/Nano25Oct2019-v1/60000/F033B450-C3F8-0F49-A3AF-5541EE1833F9.root
p1
aVroot://cms-xrdr.private.lo:2094//xrd/store/data/Run2016H/SingleMuon/NANOAOD/Nano25Oct2019-v1/60000/F191D241-24D7-A84E-8225-0C8D53A8900D.root
p2
aVroot://cms-xrdr.private.lo:2094//xrd/store/data/Run2016H/SingleMuon/NANOAOD/Nano25Oct2019-v1/60000/F20B4FF9-2DB8-8C4B-8920-DE0C94C09E61.root
p3
aVroot://cms-xrdr.private.lo:2094//xrd/store/data/Run2016H/SingleMuon/NANOAOD/Nano25Oct2019-v1/60000/F51DFD3F-DFF3-DF4F-B858-6FB6EFF4D4F1.root
p4
aVroot://cms-xrdr.private.lo:2094//xrd/store/data/Run2016H/SingleMuon/NANOAOD/Nano25Oct2019-v1/60000/F5FC4C29-4440-A549-9F91-16B15538D116.root
p5
aVroot://cms-xrdr.private.lo:2094//xrd/store/data/Run2016H/SingleMuon/NANOAOD/Nano25Oct2019-v1/60000/F6F033D3-1C9D-E34A-98A7-0562E78EE3B2.root
p6
aVroot://cms-xrdr.private.lo:2094//xrd/store/data/Run2016H/SingleMuon/NANOAOD/Nano25Oct2019-v1/60000/F82A25DA-A73C-B841-98EA-E20DCCF3D23A.root
p7
aVroot://cms-xrdr.private.lo:2094//xrd/store/data/Run2016H/SingleMuon/NANOAOD/Nano25Oct2019-v1/60000/FABBFD28-5898-E146-B18A-74F7AC0250F6.root
p8
aVroot://cms-xrdr.private.lo:2094//xrd/store/data/Run2016H/SingleMuon/NANOAOD/Nano25Oct2019-v1/60000/FBC6C898-DAFB-CE49-BC0F-A621F14EEE39.root
p9
aVroot://cms-xrdr.private.lo:2094//xrd/store/data/Run2016H/SingleMuon/NANOAOD/Nano25Oct2019-v1/60000/FC1DF2B7-94D1-D148-93C8-0BD42BE8472E.root
p10
aVroot://cms-xrdr.private.lo:2094//xrd/store/data/Run2016H/SingleMuon/NANOAOD/Nano25Oct2019-v1/60000/FECDCF80-7703-134D-95A8-578DC0E21035.root
p11
a.