(lp0
Vroot://cms-xrdr.private.lo:2094//xrd/store/data/Run2016G/SingleMuon/NANOAOD/Nano25Oct2019-v1/40000/D04339CF-3BA0-7349-8B6E-797977656AF1.root
p1
aVroot://cms-xrdr.private.lo:2094//xrd/store/data/Run2016G/SingleMuon/NANOAOD/Nano25Oct2019-v1/40000/D27DFFF4-6C14-E24C-B8EA-41D8FEA6ABD5.root
p2
aVroot://cms-xrdr.private.lo:2094//xrd/store/data/Run2016G/SingleMuon/NANOAOD/Nano25Oct2019-v1/40000/D54655E7-6E2B-294E-A7D6-E33D43385D73.root
p3
aVroot://cms-xrdr.private.lo:2094//xrd/store/data/Run2016G/SingleMuon/NANOAOD/Nano25Oct2019-v1/40000/D5A96C80-C435-3B4F-9652-EF271B33C4B3.root
p4
aVroot://cms-xrdr.private.lo:2094//xrd/store/data/Run2016G/SingleMuon/NANOAOD/Nano25Oct2019-v1/40000/D86AD46C-6EE7-F949-9476-DDE00FFE7270.root
p5
aVroot://cms-xrdr.private.lo:2094//xrd/store/data/Run2016G/SingleMuon/NANOAOD/Nano25Oct2019-v1/40000/DA1453B3-ECD7-B94C-8AFC-97FC6382BEEB.root
p6
aVroot://cms-xrdr.private.lo:2094//xrd/store/data/Run2016G/SingleMuon/NANOAOD/Nano25Oct2019-v1/40000/DB445B02-C71F-4047-A951-FB7E7DE1E858.root
p7
aVroot://cms-xrdr.private.lo:2094//xrd/store/data/Run2016G/SingleMuon/NANOAOD/Nano25Oct2019-v1/40000/DB61E7F1-D1A0-5848-B7E9-2ACD20FFF44A.root
p8
aVroot://cms-xrdr.private.lo:2094//xrd/store/data/Run2016G/SingleMuon/NANOAOD/Nano25Oct2019-v1/40000/DF4F2323-1277-D942-B86F-9162AA044BC6.root
p9
a.