(lp0
Vroot://cms-xrdr.private.lo:2094//xrd/store/data/Run2016D/SingleMuon/NANOAOD/Nano25Oct2019-v1/20000/7138F86A-05DE-144D-9F73-67BCB8FB9C33.root
p1
aVroot://cms-xrdr.private.lo:2094//xrd/store/data/Run2016D/SingleMuon/NANOAOD/Nano25Oct2019-v1/20000/71A4513E-F8EC-EB47-B233-F0932C28C671.root
p2
aVroot://cms-xrdr.private.lo:2094//xrd/store/data/Run2016D/SingleMuon/NANOAOD/Nano25Oct2019-v1/20000/72774D1A-9281-094A-8E1E-4DC7379DA055.root
p3
aVroot://cms-xrdr.private.lo:2094//xrd/store/data/Run2016D/SingleMuon/NANOAOD/Nano25Oct2019-v1/20000/764AC2D9-BD85-C546-912F-87529AADA4A0.root
p4
aVroot://cms-xrdr.private.lo:2094//xrd/store/data/Run2016D/SingleMuon/NANOAOD/Nano25Oct2019-v1/20000/7676DB14-2265-554A-AD27-F2689AA5862E.root
p5
aVroot://cms-xrdr.private.lo:2094//xrd/store/data/Run2016D/SingleMuon/NANOAOD/Nano25Oct2019-v1/20000/788F42E9-CCE5-844D-8564-934F1FD85EB7.root
p6
aVroot://cms-xrdr.private.lo:2094//xrd/store/data/Run2016D/SingleMuon/NANOAOD/Nano25Oct2019-v1/20000/797D97E8-CD0D-6C4F-9A09-9421C3472153.root
p7
aVroot://cms-xrdr.private.lo:2094//xrd/store/data/Run2016D/SingleMuon/NANOAOD/Nano25Oct2019-v1/20000/7B1B99FD-7949-0B43-93A9-4D126843CAB2.root
p8
aVroot://cms-xrdr.private.lo:2094//xrd/store/data/Run2016D/SingleMuon/NANOAOD/Nano25Oct2019-v1/20000/7CB23CE6-18AC-B74A-BE1E-2BFC4283E326.root
p9
a.