(lp0
Vroot://cms-xrdr.private.lo:2094//xrd/store/data/Run2016E/SingleMuon/NANOAOD/Nano25Oct2019-v1/230000/175F0BD0-A8F1-FF4E-B0FE-ACAC51B59525.root
p1
aVroot://cms-xrdr.private.lo:2094//xrd/store/data/Run2016E/SingleMuon/NANOAOD/Nano25Oct2019-v1/230000/1C50B5C9-5324-0544-A9EC-F24010435684.root
p2
a.