(lp0
Vroot://cms-xrdr.private.lo:2094//xrd/store/data/Run2016F/SingleMuon/NANOAOD/Nano25Oct2019-v1/30000/A1E207E0-3A2D-F24F-99C3-A7A86EE62696.root
p1
aVroot://cms-xrdr.private.lo:2094//xrd/store/data/Run2016F/SingleMuon/NANOAOD/Nano25Oct2019-v1/30000/A74A88BA-E02F-3A4F-BC89-0AB15896099F.root
p2
aVroot://cms-xrdr.private.lo:2094//xrd/store/data/Run2016F/SingleMuon/NANOAOD/Nano25Oct2019-v1/30000/A8EE6979-C2E5-3046-A2ED-829F37A9635C.root
p3
aVroot://cms-xrdr.private.lo:2094//xrd/store/data/Run2016F/SingleMuon/NANOAOD/Nano25Oct2019-v1/30000/AA8CC77D-6C45-D445-A76B-F6CEC01ED6C9.root
p4
a.