(lp0
Vroot://cms-xrdr.private.lo:2094//xrd/store/data/Run2016G/DoubleMuon/NANOAOD/Nano25Oct2019-v1/240000/E387E1DD-3EB4-FD4E-942B-5BD99D239078.root
p1
aVroot://cms-xrdr.private.lo:2094//xrd/store/data/Run2016G/DoubleMuon/NANOAOD/Nano25Oct2019-v1/240000/E4FED47F-4D49-5B47-8FFE-B45F32916465.root
p2
aVroot://cms-xrdr.private.lo:2094//xrd/store/data/Run2016G/DoubleMuon/NANOAOD/Nano25Oct2019-v1/240000/EAD328C4-58EC-EE44-AABE-0ADB5CAB018B.root
p3
aVroot://cms-xrdr.private.lo:2094//xrd/store/data/Run2016G/DoubleMuon/NANOAOD/Nano25Oct2019-v1/240000/EB28F099-F762-F947-97FD-255CDC7281CA.root
p4
aVroot://cms-xrdr.private.lo:2094//xrd/store/data/Run2016G/DoubleMuon/NANOAOD/Nano25Oct2019-v1/240000/EC93628A-F4EE-6547-AE89-1B1AB80A8D0D.root
p5
a.