(lp0
Vroot://cms-xrdr.private.lo:2094//xrd/store/data/Run2016E/DoubleMuon/NANOAOD/Nano25Oct2019-v1/230000/F04E0D55-5F0B-634B-863E-39B0527C258B.root
p1
aVroot://cms-xrdr.private.lo:2094//xrd/store/data/Run2016E/DoubleMuon/NANOAOD/Nano25Oct2019-v1/230000/F316AA21-3F6A-AA41-A490-923327D2DB37.root
p2
aVroot://cms-xrdr.private.lo:2094//xrd/store/data/Run2016E/DoubleMuon/NANOAOD/Nano25Oct2019-v1/230000/F32F6C3E-5DB0-6B47-B34E-68609F36D495.root
p3
aVroot://cms-xrdr.private.lo:2094//xrd/store/data/Run2016E/DoubleMuon/NANOAOD/Nano25Oct2019-v1/230000/FE2389ED-B9E8-8648-9CB6-CA4057B56BD4.root
p4
a.