(lp0
Vroot://cms-xrdr.private.lo:2094//xrd/store/data/Run2016B_ver2/SingleMuon/NANOAOD/Nano25Oct2019_ver2-v1/20000/A8D44ABE-B946-614C-86EA-C6B2AA9CE0C2.root
p1
aVroot://cms-xrdr.private.lo:2094//xrd/store/data/Run2016B_ver2/SingleMuon/NANOAOD/Nano25Oct2019_ver2-v1/20000/A9D697D4-E408-CF44-B4C4-C64CA8B6A61E.root
p2
aVroot://cms-xrdr.private.lo:2094//xrd/store/data/Run2016B_ver2/SingleMuon/NANOAOD/Nano25Oct2019_ver2-v1/20000/AB0A4716-291C-444B-823B-C2018A38B00D.root
p3
aVroot://cms-xrdr.private.lo:2094//xrd/store/data/Run2016B_ver2/SingleMuon/NANOAOD/Nano25Oct2019_ver2-v1/20000/ABFD1C2C-87F3-EB42-B06D-5C6E9F6AF3CF.root
p4
aVroot://cms-xrdr.private.lo:2094//xrd/store/data/Run2016B_ver2/SingleMuon/NANOAOD/Nano25Oct2019_ver2-v1/20000/AC72D96D-543F-1344-B3E8-43F4395F4DC9.root
p5
aVroot://cms-xrdr.private.lo:2094//xrd/store/data/Run2016B_ver2/SingleMuon/NANOAOD/Nano25Oct2019_ver2-v1/20000/ADC12CDD-1446-734E-AE56-E73CEE374633.root
p6
a.