(lp0
Vroot://cms-xrdr.private.lo:2094//xrd/store/data/Run2016G/DoubleMuon/NANOAOD/Nano25Oct2019-v1/240000/F388ABC7-EA49-1E42-B99E-7E2875509318.root
p1
aVroot://cms-xrdr.private.lo:2094//xrd/store/data/Run2016G/DoubleMuon/NANOAOD/Nano25Oct2019-v1/240000/F5CEB5DD-BB35-064F-BD85-4BCB11EFD8C3.root
p2
aVroot://cms-xrdr.private.lo:2094//xrd/store/data/Run2016G/DoubleMuon/NANOAOD/Nano25Oct2019-v1/240000/F77F3210-4F95-1D48-949C-4B54054001D5.root
p3
a.