(lp0
Vroot://cms-xrdr.private.lo:2094//xrd/store/data/Run2016G/DoubleMuon/NANOAOD/Nano25Oct2019-v1/240000/CA7AB6FE-61CE-1248-AFAA-7EFD6A1B26C3.root
p1
aVroot://cms-xrdr.private.lo:2094//xrd/store/data/Run2016G/DoubleMuon/NANOAOD/Nano25Oct2019-v1/240000/CE89618C-2470-084A-9366-54674B6504C5.root
p2
a.