(lp0
Vroot://cms-xrdr.private.lo:2094//xrd/store/data/Run2016G/SingleMuon/NANOAOD/Nano25Oct2019-v1/40000/350BED2A-4249-9945-878E-741D0861CFEC.root
p1
aVroot://cms-xrdr.private.lo:2094//xrd/store/data/Run2016G/SingleMuon/NANOAOD/Nano25Oct2019-v1/40000/3680F404-E050-6B40-B122-ED43EB689DC8.root
p2
aVroot://cms-xrdr.private.lo:2094//xrd/store/data/Run2016G/SingleMuon/NANOAOD/Nano25Oct2019-v1/40000/38C9BEAD-E572-2648-ABD5-9CE2040E6B46.root
p3
aVroot://cms-xrdr.private.lo:2094//xrd/store/data/Run2016G/SingleMuon/NANOAOD/Nano25Oct2019-v1/40000/3BC9CD32-F90A-164B-BF71-2C3DDAEDCB4B.root
p4
a.