(lp0
Vroot://cms-xrdr.private.lo:2094//xrd/store/data/Run2016D/SingleMuon/NANOAOD/Nano25Oct2019-v1/20000/B15A97C5-A872-FD46-9B77-9EB3178A4174.root
p1
aVroot://cms-xrdr.private.lo:2094//xrd/store/data/Run2016D/SingleMuon/NANOAOD/Nano25Oct2019-v1/20000/B6DC65DC-5520-3543-BB41-35223D98D1D1.root
p2
aVroot://cms-xrdr.private.lo:2094//xrd/store/data/Run2016D/SingleMuon/NANOAOD/Nano25Oct2019-v1/20000/B9F5E39B-5566-C14F-8A9C-2071AF5307F7.root
p3
a.