(lp0
Vroot://cms-xrdr.private.lo:2094//xrd/store/data/Run2016G/SingleMuon/NANOAOD/Nano25Oct2019-v1/40000/C2944A3C-C846-294F-B7C4-917A0662A369.root
p1
aVroot://cms-xrdr.private.lo:2094//xrd/store/data/Run2016G/SingleMuon/NANOAOD/Nano25Oct2019-v1/40000/C5C27AF5-D36A-0C41-86E6-BC970D45BB21.root
p2
aVroot://cms-xrdr.private.lo:2094//xrd/store/data/Run2016G/SingleMuon/NANOAOD/Nano25Oct2019-v1/40000/C6FD16A3-494C-0F4F-855D-33EA8E31956E.root
p3
aVroot://cms-xrdr.private.lo:2094//xrd/store/data/Run2016G/SingleMuon/NANOAOD/Nano25Oct2019-v1/40000/C76C73F9-C9DC-4E4E-AE33-E7D3E5A70F9D.root
p4
aVroot://cms-xrdr.private.lo:2094//xrd/store/data/Run2016G/SingleMuon/NANOAOD/Nano25Oct2019-v1/40000/CE6B09F6-6CFF-984C-8657-9BD4DFCC5909.root
p5
a.