(lp0
Vroot://cms-xrdr.private.lo:2094//xrd/store/data/Run2016D/SingleMuon/NANOAOD/Nano25Oct2019-v1/240000/F6158C64-AD5D-4047-B77C-BFA86FAB11DE.root
p1
aVroot://cms-xrdr.private.lo:2094//xrd/store/data/Run2016D/SingleMuon/NANOAOD/Nano25Oct2019-v1/240000/F7BC2D74-04D5-5845-A955-4895A8EC8A71.root
p2
a.