(lp0
Vroot://cms-xrdr.private.lo:2094//xrd/store/data/Run2016G/SingleMuon/NANOAOD/Nano25Oct2019-v1/40000/1060EA9D-99D1-D34D-9EF5-8B685103B397.root
p1
aVroot://cms-xrdr.private.lo:2094//xrd/store/data/Run2016G/SingleMuon/NANOAOD/Nano25Oct2019-v1/40000/189EF291-4EAA-AC4B-A48E-9C1E6223C9FF.root
p2
aVroot://cms-xrdr.private.lo:2094//xrd/store/data/Run2016G/SingleMuon/NANOAOD/Nano25Oct2019-v1/40000/1A5331D8-2A28-754B-90C5-D2FFCA48ADA3.root
p3
aVroot://cms-xrdr.private.lo:2094//xrd/store/data/Run2016G/SingleMuon/NANOAOD/Nano25Oct2019-v1/40000/1ED9CDBA-F45C-7144-966B-F87FA1C53DB0.root
p4
aVroot://cms-xrdr.private.lo:2094//xrd/store/data/Run2016G/SingleMuon/NANOAOD/Nano25Oct2019-v1/40000/1EFE5E5B-D4ED-4D4E-BB32-786962A958E7.root
p5
a.