(lp0
Vroot://cms-xrdr.private.lo:2094//xrd/store/data/Run2016B_ver2/SingleMuon/NANOAOD/Nano25Oct2019_ver2-v1/20000/0289BB82-DF74-A74F-A9F7-AE57B5041EE9.root
p1
aVroot://cms-xrdr.private.lo:2094//xrd/store/data/Run2016B_ver2/SingleMuon/NANOAOD/Nano25Oct2019_ver2-v1/20000/05D9C0DF-24DB-AE49-9355-FE48F90D8D46.root
p2
aVroot://cms-xrdr.private.lo:2094//xrd/store/data/Run2016B_ver2/SingleMuon/NANOAOD/Nano25Oct2019_ver2-v1/20000/07489028-2F9E-5E47-8D39-D95D8B4297F1.root
p3
aVroot://cms-xrdr.private.lo:2094//xrd/store/data/Run2016B_ver2/SingleMuon/NANOAOD/Nano25Oct2019_ver2-v1/20000/0CF55711-55C6-334A-A1C5-45FC3F1C2C0A.root
p4
aVroot://cms-xrdr.private.lo:2094//xrd/store/data/Run2016B_ver2/SingleMuon/NANOAOD/Nano25Oct2019_ver2-v1/20000/0D391FF5-56D7-FE45-8831-BD55A4238CE9.root
p5
a.