(lp0
Vroot://cms-xrdr.private.lo:2094//xrd/store/data/Run2016F/SingleMuon/NANOAOD/Nano25Oct2019-v1/30000/B00F90C6-E9FD-214A-B922-FA1B5FBD379D.root
p1
aVroot://cms-xrdr.private.lo:2094//xrd/store/data/Run2016F/SingleMuon/NANOAOD/Nano25Oct2019-v1/30000/B18923B6-14E9-A84F-B20B-DDF942B5F3C5.root
p2
aVroot://cms-xrdr.private.lo:2094//xrd/store/data/Run2016F/SingleMuon/NANOAOD/Nano25Oct2019-v1/30000/B3DB87F0-FFC6-4844-A05A-B381C9BF6C13.root
p3
aVroot://cms-xrdr.private.lo:2094//xrd/store/data/Run2016F/SingleMuon/NANOAOD/Nano25Oct2019-v1/30000/BA1BE85F-0089-544A-8E82-A4F8DB0E1586.root
p4
aVroot://cms-xrdr.private.lo:2094//xrd/store/data/Run2016F/SingleMuon/NANOAOD/Nano25Oct2019-v1/30000/BDC33F0A-9CB2-A548-8953-03DC5A49B537.root
p5
a.