(lp0
Vroot://cms-xrdr.private.lo:2094//xrd/store/data/Run2016E/SingleMuon/NANOAOD/Nano25Oct2019-v1/230000/B779C3A4-AD15-2F46-BF0F-299E81D07986.root
p1
aVroot://cms-xrdr.private.lo:2094//xrd/store/data/Run2016E/SingleMuon/NANOAOD/Nano25Oct2019-v1/230000/B93D77F7-8D99-F042-9CB6-4220273F1273.root
p2
aVroot://cms-xrdr.private.lo:2094//xrd/store/data/Run2016E/SingleMuon/NANOAOD/Nano25Oct2019-v1/230000/BA4E9896-96EB-0442-998C-903F3DEEDE81.root
p3
aVroot://cms-xrdr.private.lo:2094//xrd/store/data/Run2016E/SingleMuon/NANOAOD/Nano25Oct2019-v1/230000/BCAAC058-3A84-5F43-92EA-A90DF63A7B15.root
p4
a.