(lp0
Vroot://cms-xrdr.private.lo:2094//xrd/store/data/Run2016E/SingleMuon/NANOAOD/Nano25Oct2019-v1/230000/8017DED2-8F8F-7E40-858C-9B7B5DDA655D.root
p1
aVroot://cms-xrdr.private.lo:2094//xrd/store/data/Run2016E/SingleMuon/NANOAOD/Nano25Oct2019-v1/230000/80B1E05F-917E-954F-932F-13FA2801398B.root
p2
aVroot://cms-xrdr.private.lo:2094//xrd/store/data/Run2016E/SingleMuon/NANOAOD/Nano25Oct2019-v1/230000/8AA3C6D4-05F6-734D-BD53-DBAD07DFC881.root
p3
aVroot://cms-xrdr.private.lo:2094//xrd/store/data/Run2016E/SingleMuon/NANOAOD/Nano25Oct2019-v1/230000/8DF48F10-19AB-4F41-A90E-1670CEDAD883.root
p4
a.