(lp0
Vroot://cms-xrdr.private.lo:2094//xrd/store/data/Run2016C/SingleMuon/NANOAOD/Nano25Oct2019-v1/40000/F7FC207B-943C-3B48-9147-D83B838BE473.root
p1
aVroot://cms-xrdr.private.lo:2094//xrd/store/data/Run2016C/SingleMuon/NANOAOD/Nano25Oct2019-v1/40000/FF9D705E-17DC-ED4C-8A66-A0AEA28F1D44.root
p2
a.