(lp0
Vroot://cms-xrdr.private.lo:2094//xrd/store/data/Run2016H/SingleMuon/NANOAOD/Nano25Oct2019-v1/60000/50A22F2B-F9F9-7447-9805-15FAF8EDF5B7.root
p1
aVroot://cms-xrdr.private.lo:2094//xrd/store/data/Run2016H/SingleMuon/NANOAOD/Nano25Oct2019-v1/60000/5197835D-7D00-6847-B52F-46C12EDBF2BF.root
p2
aVroot://cms-xrdr.private.lo:2094//xrd/store/data/Run2016H/SingleMuon/NANOAOD/Nano25Oct2019-v1/60000/54C8EAA0-88D9-A34C-9E01-BCB1652F946F.root
p3
aVroot://cms-xrdr.private.lo:2094//xrd/store/data/Run2016H/SingleMuon/NANOAOD/Nano25Oct2019-v1/60000/5C6D058B-D420-3044-AED5-2242C6696BAF.root
p4
aVroot://cms-xrdr.private.lo:2094//xrd/store/data/Run2016H/SingleMuon/NANOAOD/Nano25Oct2019-v1/60000/5D137767-A57C-DA4C-8E2D-338706CFD3F9.root
p5
aVroot://cms-xrdr.private.lo:2094//xrd/store/data/Run2016H/SingleMuon/NANOAOD/Nano25Oct2019-v1/60000/5E669956-3D1D-FC4A-AFA5-63A98E9382A7.root
p6
aVroot://cms-xrdr.private.lo:2094//xrd/store/data/Run2016H/SingleMuon/NANOAOD/Nano25Oct2019-v1/60000/5F3DE51C-E312-3A4F-9AAF-15260B7F8DDD.root
p7
a.