(lp0
Vroot://cms-xrdr.private.lo:2094//xrd/store/data/Run2016F/SingleMuon/NANOAOD/Nano25Oct2019-v1/30000/925FAF9A-9451-FF46-B9D8-4C64BCABC9E5.root
p1
aVroot://cms-xrdr.private.lo:2094//xrd/store/data/Run2016F/SingleMuon/NANOAOD/Nano25Oct2019-v1/30000/92C92E87-13AB-D040-8EA5-B113ED46AA6E.root
p2
aVroot://cms-xrdr.private.lo:2094//xrd/store/data/Run2016F/SingleMuon/NANOAOD/Nano25Oct2019-v1/30000/93E4F058-68D2-A54D-B027-F9227E1A443B.root
p3
a.