(lp0
Vroot://cms-xrdr.private.lo:2094//xrd/store/data/Run2016H/SingleMuon/NANOAOD/Nano25Oct2019-v1/60000/1061E3A0-0F64-DA4C-852F-462BA55CD0B6.root
p1
aVroot://cms-xrdr.private.lo:2094//xrd/store/data/Run2016H/SingleMuon/NANOAOD/Nano25Oct2019-v1/60000/13E1D821-DB89-0440-B632-34DE9E75F392.root
p2
aVroot://cms-xrdr.private.lo:2094//xrd/store/data/Run2016H/SingleMuon/NANOAOD/Nano25Oct2019-v1/60000/14E57755-B451-3D4E-B9F1-D590FA36D3E1.root
p3
aVroot://cms-xrdr.private.lo:2094//xrd/store/data/Run2016H/SingleMuon/NANOAOD/Nano25Oct2019-v1/60000/1680CB7D-6478-2845-9B4E-9C19384BC783.root
p4
aVroot://cms-xrdr.private.lo:2094//xrd/store/data/Run2016H/SingleMuon/NANOAOD/Nano25Oct2019-v1/60000/1B642B9C-E241-0D49-A832-E4CC904C26DF.root
p5
aVroot://cms-xrdr.private.lo:2094//xrd/store/data/Run2016H/SingleMuon/NANOAOD/Nano25Oct2019-v1/60000/1E17BBB2-2E75-C946-9880-3601BB24FD9A.root
p6
aVroot://cms-xrdr.private.lo:2094//xrd/store/data/Run2016H/SingleMuon/NANOAOD/Nano25Oct2019-v1/60000/1E896D1B-4CF2-EC47-8498-2EFF95B934F9.root
p7
aVroot://cms-xrdr.private.lo:2094//xrd/store/data/Run2016H/SingleMuon/NANOAOD/Nano25Oct2019-v1/60000/1EADA83B-3D5A-004F-BFEC-7477C0A7A5EA.root
p8
aVroot://cms-xrdr.private.lo:2094//xrd/store/data/Run2016H/SingleMuon/NANOAOD/Nano25Oct2019-v1/60000/1F650B15-40BC-D044-B0EA-7379B5B29683.root
p9
a.