(lp0
Vroot://cms-xrdr.private.lo:2094//xrd/store/data/Run2016D/SingleMuon/NANOAOD/Nano25Oct2019-v1/20000/997B2A45-CE1D-1242-868E-BA0BC8ED5EAC.root
p1
aVroot://cms-xrdr.private.lo:2094//xrd/store/data/Run2016D/SingleMuon/NANOAOD/Nano25Oct2019-v1/20000/9C042D22-FA7D-A145-B6A5-B305D95AE64D.root
p2
a.