(lp0
Vroot://cms-xrdr.private.lo:2094//xrd/store/data/Run2016D/SingleMuon/NANOAOD/Nano25Oct2019-v1/20000/F935FFA8-5BC6-C04B-A9EC-D66B7593C8EB.root
p1
aVroot://cms-xrdr.private.lo:2094//xrd/store/data/Run2016D/SingleMuon/NANOAOD/Nano25Oct2019-v1/20000/F998C6A9-C69E-7248-9E86-D0FFC1766973.root
p2
a.