(lp0
Vroot://cms-xrdr.private.lo:2094//xrd/store/data/Run2016G/SingleMuon/NANOAOD/Nano25Oct2019-v1/40000/A22687F4-642C-A640-A73D-CC4F128966EE.root
p1
aVroot://cms-xrdr.private.lo:2094//xrd/store/data/Run2016G/SingleMuon/NANOAOD/Nano25Oct2019-v1/40000/A2D1DE3B-83E6-3743-96D9-03AA9115CA58.root
p2
aVroot://cms-xrdr.private.lo:2094//xrd/store/data/Run2016G/SingleMuon/NANOAOD/Nano25Oct2019-v1/40000/A30FF05F-3B76-5F42-90F7-85210CC2DB57.root
p3
aVroot://cms-xrdr.private.lo:2094//xrd/store/data/Run2016G/SingleMuon/NANOAOD/Nano25Oct2019-v1/40000/A4D4B8CD-33A2-1241-8A99-2D9DF86EF7DF.root
p4
aVroot://cms-xrdr.private.lo:2094//xrd/store/data/Run2016G/SingleMuon/NANOAOD/Nano25Oct2019-v1/40000/A50A28AB-3111-804D-B3BD-108ACA0CD1AB.root
p5
aVroot://cms-xrdr.private.lo:2094//xrd/store/data/Run2016G/SingleMuon/NANOAOD/Nano25Oct2019-v1/40000/A62921FA-3407-0A46-9853-AAE8E63DE340.root
p6
aVroot://cms-xrdr.private.lo:2094//xrd/store/data/Run2016G/SingleMuon/NANOAOD/Nano25Oct2019-v1/40000/A8B797BF-1AA6-DD41-B6AC-ACCB9750E740.root
p7
aVroot://cms-xrdr.private.lo:2094//xrd/store/data/Run2016G/SingleMuon/NANOAOD/Nano25Oct2019-v1/40000/A9350817-B6F7-0D48-944C-7FBDBAF321D2.root
p8
aVroot://cms-xrdr.private.lo:2094//xrd/store/data/Run2016G/SingleMuon/NANOAOD/Nano25Oct2019-v1/40000/AAC2ADB1-33D0-2A46-BFE3-8750128B086A.root
p9
aVroot://cms-xrdr.private.lo:2094//xrd/store/data/Run2016G/SingleMuon/NANOAOD/Nano25Oct2019-v1/40000/AAF103AB-B868-3C46-BE37-36A09DE39871.root
p10
aVroot://cms-xrdr.private.lo:2094//xrd/store/data/Run2016G/SingleMuon/NANOAOD/Nano25Oct2019-v1/40000/AC992B17-ABC3-7740-AE20-330D826688C2.root
p11
aVroot://cms-xrdr.private.lo:2094//xrd/store/data/Run2016G/SingleMuon/NANOAOD/Nano25Oct2019-v1/40000/AEFD97EC-4E32-AB41-B3C6-612F6A42F22F.root
p12
a.