(lp0
Vroot://cms-xrdr.private.lo:2094//xrd/store/data/Run2016E/SingleMuon/NANOAOD/Nano25Oct2019-v1/230000/4551DB6C-E420-C54E-93D1-10D1CAABD379.root
p1
aVroot://cms-xrdr.private.lo:2094//xrd/store/data/Run2016E/SingleMuon/NANOAOD/Nano25Oct2019-v1/230000/45BD4CEA-9EEF-DA42-BA30-F4B5A283FAF3.root
p2
aVroot://cms-xrdr.private.lo:2094//xrd/store/data/Run2016E/SingleMuon/NANOAOD/Nano25Oct2019-v1/230000/495AFE99-34FF-BB45-A94B-6D7E4AE264FB.root
p3
aVroot://cms-xrdr.private.lo:2094//xrd/store/data/Run2016E/SingleMuon/NANOAOD/Nano25Oct2019-v1/230000/4B2A2DF6-9E65-1845-85DA-5A1020F15ADE.root
p4
aVroot://cms-xrdr.private.lo:2094//xrd/store/data/Run2016E/SingleMuon/NANOAOD/Nano25Oct2019-v1/230000/4F37D371-3D54-2B48-B3C2-583A07030F14.root
p5
a.