(lp0
Vroot://cms-xrdr.private.lo:2094//xrd/store/data/Run2016D/SingleMuon/NANOAOD/Nano25Oct2019-v1/20000/40D114CC-5EE5-8646-AF75-386B12463E24.root
p1
aVroot://cms-xrdr.private.lo:2094//xrd/store/data/Run2016D/SingleMuon/NANOAOD/Nano25Oct2019-v1/20000/434FE214-A35F-0341-8D5F-A32DCE4D2A89.root
p2
aVroot://cms-xrdr.private.lo:2094//xrd/store/data/Run2016D/SingleMuon/NANOAOD/Nano25Oct2019-v1/20000/44034302-0C24-5447-ADA8-9C64977636D1.root
p3
aVroot://cms-xrdr.private.lo:2094//xrd/store/data/Run2016D/SingleMuon/NANOAOD/Nano25Oct2019-v1/20000/4771DB0C-98FB-9A4B-8361-3C0CEAF6705F.root
p4
a.