(lp0
Vroot://cms-xrdr.private.lo:2094//xrd/store/data/Run2016G/SingleMuon/NANOAOD/Nano25Oct2019-v1/40000/85F6AC92-2405-9743-B5A5-8A868D3F53A8.root
p1
aVroot://cms-xrdr.private.lo:2094//xrd/store/data/Run2016G/SingleMuon/NANOAOD/Nano25Oct2019-v1/40000/8EC70A0B-27D7-B54D-A927-EC601F22F7A8.root
p2
a.