(lp0
Vroot://cms-xrdr.private.lo:2094//xrd/store/data/Run2016H/SingleMuon/NANOAOD/Nano25Oct2019-v1/60000/C06CEE39-FC80-384E-823A-F6A75F2367C1.root
p1
aVroot://cms-xrdr.private.lo:2094//xrd/store/data/Run2016H/SingleMuon/NANOAOD/Nano25Oct2019-v1/60000/C9EC7194-B48A-8D42-8219-5A9B68E31657.root
p2
aVroot://cms-xrdr.private.lo:2094//xrd/store/data/Run2016H/SingleMuon/NANOAOD/Nano25Oct2019-v1/60000/CA7D2597-5767-5145-8A81-979010290D69.root
p3
aVroot://cms-xrdr.private.lo:2094//xrd/store/data/Run2016H/SingleMuon/NANOAOD/Nano25Oct2019-v1/60000/CAF541E9-A118-4948-BCC2-6A26E2265386.root
p4
aVroot://cms-xrdr.private.lo:2094//xrd/store/data/Run2016H/SingleMuon/NANOAOD/Nano25Oct2019-v1/60000/CBD3CEB4-9986-DE4B-A10B-4AFC362344F2.root
p5
a.