(lp0
Vroot://cms-xrdr.private.lo:2094//xrd/store/data/Run2016F/SingleMuon/NANOAOD/Nano25Oct2019-v1/30000/4813C155-24C9-5A4B-B869-C6FC21A8E0A6.root
p1
aVroot://cms-xrdr.private.lo:2094//xrd/store/data/Run2016F/SingleMuon/NANOAOD/Nano25Oct2019-v1/30000/48AAEA4B-B647-2741-B9CE-79C8A8936131.root
p2
aVroot://cms-xrdr.private.lo:2094//xrd/store/data/Run2016F/SingleMuon/NANOAOD/Nano25Oct2019-v1/30000/4A9406ED-1184-4E45-9012-A82F5C9C210B.root
p3
aVroot://cms-xrdr.private.lo:2094//xrd/store/data/Run2016F/SingleMuon/NANOAOD/Nano25Oct2019-v1/30000/4AFBC15C-3F02-2547-8BA3-A0A4EE2727D0.root
p4
aVroot://cms-xrdr.private.lo:2094//xrd/store/data/Run2016F/SingleMuon/NANOAOD/Nano25Oct2019-v1/30000/4B075D89-5DBB-6C46-B9B4-C73A9AC6BE33.root
p5
aVroot://cms-xrdr.private.lo:2094//xrd/store/data/Run2016F/SingleMuon/NANOAOD/Nano25Oct2019-v1/30000/4F9B31A2-72E3-5D41-8986-D387D1CA5B4A.root
p6
a.