(lp0
Vroot://cms-xrdr.private.lo:2094//xrd/store/data/Run2016G/SingleMuon/NANOAOD/Nano25Oct2019-v1/40000/922D6A20-267E-C744-ACED-2878F44A5415.root
p1
aVroot://cms-xrdr.private.lo:2094//xrd/store/data/Run2016G/SingleMuon/NANOAOD/Nano25Oct2019-v1/40000/92F6D260-BA26-9343-B11B-0058B4AC1F39.root
p2
aVroot://cms-xrdr.private.lo:2094//xrd/store/data/Run2016G/SingleMuon/NANOAOD/Nano25Oct2019-v1/40000/991432D1-DA76-B34A-BE4C-22B8A0012A88.root
p3
aVroot://cms-xrdr.private.lo:2094//xrd/store/data/Run2016G/SingleMuon/NANOAOD/Nano25Oct2019-v1/40000/99741DBA-0F81-E84F-9D98-6E86105FE99A.root
p4
aVroot://cms-xrdr.private.lo:2094//xrd/store/data/Run2016G/SingleMuon/NANOAOD/Nano25Oct2019-v1/40000/9D8EE183-A48A-BB47-ACFF-A06E0281400A.root
p5
aVroot://cms-xrdr.private.lo:2094//xrd/store/data/Run2016G/SingleMuon/NANOAOD/Nano25Oct2019-v1/40000/9FC95133-7056-5240-8079-7C93FCFA7B19.root
p6
aVroot://cms-xrdr.private.lo:2094//xrd/store/data/Run2016G/SingleMuon/NANOAOD/Nano25Oct2019-v1/40000/9FD4D03F-441C-D441-BA00-1AD0757E043B.root
p7
aVroot://cms-xrdr.private.lo:2094//xrd/store/data/Run2016G/SingleMuon/NANOAOD/Nano25Oct2019-v1/40000/9FFEB4CC-B4C2-F049-BB69-D93BBB0485AE.root
p8
a.