(lp0
Vroot://cms-xrdr.private.lo:2094//xrd/store/data/Run2016H/SingleMuon/NANOAOD/Nano25Oct2019-v1/60000/D56258B5-BD3E-B845-B944-7EEFB8AA3508.root
p1
aVroot://cms-xrdr.private.lo:2094//xrd/store/data/Run2016H/SingleMuon/NANOAOD/Nano25Oct2019-v1/60000/D571F938-8657-6C40-B524-7CEB79F100EE.root
p2
aVroot://cms-xrdr.private.lo:2094//xrd/store/data/Run2016H/SingleMuon/NANOAOD/Nano25Oct2019-v1/60000/DBD06F86-DC53-FB4E-B6C5-11D0BE2E8266.root
p3
aVroot://cms-xrdr.private.lo:2094//xrd/store/data/Run2016H/SingleMuon/NANOAOD/Nano25Oct2019-v1/60000/DE2C8DE5-9A55-DD41-BAEF-E4B70C151FB5.root
p4
aVroot://cms-xrdr.private.lo:2094//xrd/store/data/Run2016H/SingleMuon/NANOAOD/Nano25Oct2019-v1/60000/DE2D253C-C457-394F-94B0-B04B10B5D7B5.root
p5
aVroot://cms-xrdr.private.lo:2094//xrd/store/data/Run2016H/SingleMuon/NANOAOD/Nano25Oct2019-v1/60000/DE59B874-D4BA-A54F-8996-955623B72414.root
p6
aVroot://cms-xrdr.private.lo:2094//xrd/store/data/Run2016H/SingleMuon/NANOAOD/Nano25Oct2019-v1/60000/DFCD8E8F-4B38-994E-8101-DF25955C6B6D.root
p7
a.