(lp0
Vroot://cms-xrdr.private.lo:2094//xrd/store/data/Run2016H/SingleMuon/NANOAOD/Nano25Oct2019-v1/60000/B3C5A73F-56BD-064B-8F4F-419C64C98B72.root
p1
aVroot://cms-xrdr.private.lo:2094//xrd/store/data/Run2016H/SingleMuon/NANOAOD/Nano25Oct2019-v1/60000/B40A4E61-F700-7F4A-9022-C8532A78D814.root
p2
aVroot://cms-xrdr.private.lo:2094//xrd/store/data/Run2016H/SingleMuon/NANOAOD/Nano25Oct2019-v1/60000/B8FFBE33-33E2-3848-A38A-076D704FCE7C.root
p3
aVroot://cms-xrdr.private.lo:2094//xrd/store/data/Run2016H/SingleMuon/NANOAOD/Nano25Oct2019-v1/60000/BAF90F1D-AB2E-A34F-A5EC-F8282DE320A6.root
p4
aVroot://cms-xrdr.private.lo:2094//xrd/store/data/Run2016H/SingleMuon/NANOAOD/Nano25Oct2019-v1/60000/BD09B0E5-59E4-5440-8832-A70ECF670E61.root
p5
aVroot://cms-xrdr.private.lo:2094//xrd/store/data/Run2016H/SingleMuon/NANOAOD/Nano25Oct2019-v1/60000/BE1BBCA0-4055-F642-975C-2FFAEC753A84.root
p6
a.