(lp0
Vroot://cms-xrdr.private.lo:2094//xrd/store/data/Run2016C/SingleMuon/NANOAOD/Nano25Oct2019-v1/40000/D6ED620C-CC03-6E48-A221-C83F87EF6AAD.root
p1
aVroot://cms-xrdr.private.lo:2094//xrd/store/data/Run2016C/SingleMuon/NANOAOD/Nano25Oct2019-v1/40000/D7EA8E80-53B5-4E4C-AA87-C4E1E4AE6739.root
p2
a.