(lp0
Vroot://cms-xrdr.private.lo:2094//xrd/store/data/Run2016E/SingleMuon/NANOAOD/Nano25Oct2019-v1/20000/29A3683B-9004-5B49-B26A-D17E021E606F.root
p1
aVroot://cms-xrdr.private.lo:2094//xrd/store/data/Run2016E/SingleMuon/NANOAOD/Nano25Oct2019-v1/20000/3BFD152F-D9BC-4540-810E-92939DD69EA4.root
p2
aVroot://cms-xrdr.private.lo:2094//xrd/store/data/Run2016E/SingleMuon/NANOAOD/Nano25Oct2019-v1/20000/414D1CDF-6862-9441-B76A-5834A4BCBA5A.root
p3
aVroot://cms-xrdr.private.lo:2094//xrd/store/data/Run2016E/SingleMuon/NANOAOD/Nano25Oct2019-v1/20000/8F99AFE2-E9CF-7845-99C7-A0F55C3EEF8A.root
p4
aVroot://cms-xrdr.private.lo:2094//xrd/store/data/Run2016E/SingleMuon/NANOAOD/Nano25Oct2019-v1/20000/C06CA692-E6FA-D142-AEB8-C596C0AD4836.root
p5
aVroot://cms-xrdr.private.lo:2094//xrd/store/data/Run2016E/SingleMuon/NANOAOD/Nano25Oct2019-v1/20000/CCABC985-35F4-0D46-BB6B-7CC7D9CCF8A7.root
p6
a.