(lp0
Vroot://cms-xrdr.private.lo:2094//xrd/store/data/Run2016B_ver2/SingleMuon/NANOAOD/Nano25Oct2019_ver2-v1/20000/E3C14BCD-A564-1B40-BD9C-8F253494E0CA.root
p1
aVroot://cms-xrdr.private.lo:2094//xrd/store/data/Run2016B_ver2/SingleMuon/NANOAOD/Nano25Oct2019_ver2-v1/20000/E4965054-6C2C-C445-9FF2-AF387EC05652.root
p2
aVroot://cms-xrdr.private.lo:2094//xrd/store/data/Run2016B_ver2/SingleMuon/NANOAOD/Nano25Oct2019_ver2-v1/20000/E7A3C1B1-411E-A047-BC8A-39F83F4DB4EC.root
p3
aVroot://cms-xrdr.private.lo:2094//xrd/store/data/Run2016B_ver2/SingleMuon/NANOAOD/Nano25Oct2019_ver2-v1/20000/EFEE9A00-D13F-DD4B-B6AF-00AAAC6D13BC.root
p4
a.