(lp0
Vroot://cms-xrdr.private.lo:2094//xrd/store/data/Run2016F/DoubleMuon/NANOAOD/Nano25Oct2019-v1/60000/94E9A294-D48B-CE42-8421-DFB67AB1EBAE.root
p1
aVroot://cms-xrdr.private.lo:2094//xrd/store/data/Run2016F/DoubleMuon/NANOAOD/Nano25Oct2019-v1/60000/9B101C89-F4D6-5B40-AEC1-78C79E9CFED0.root
p2
a.