(lp0
Vroot://cms-xrdr.private.lo:2094//xrd/store/data/Run2016E/DoubleMuon/NANOAOD/Nano25Oct2019-v1/230000/C1D79AE5-5047-B749-A23E-85765E41C6C1.root
p1
aVroot://cms-xrdr.private.lo:2094//xrd/store/data/Run2016E/DoubleMuon/NANOAOD/Nano25Oct2019-v1/230000/C511B008-DB6F-CA4C-AD29-56891055BDBB.root
p2
aVroot://cms-xrdr.private.lo:2094//xrd/store/data/Run2016E/DoubleMuon/NANOAOD/Nano25Oct2019-v1/230000/CCD00BD0-BDDD-AA4E-9336-57544ADCE515.root
p3
a.