(lp0
Vroot://cms-xrdr.private.lo:2094//xrd/store/data/Run2016G/SingleMuon/NANOAOD/Nano25Oct2019-v1/40000/223054D5-9D68-E44A-A009-0B7324D1202C.root
p1
aVroot://cms-xrdr.private.lo:2094//xrd/store/data/Run2016G/SingleMuon/NANOAOD/Nano25Oct2019-v1/40000/25DC8BD3-6C6E-2A4F-A7DF-0F06F603E47C.root
p2
aVroot://cms-xrdr.private.lo:2094//xrd/store/data/Run2016G/SingleMuon/NANOAOD/Nano25Oct2019-v1/40000/2784F2AA-88CD-084E-8EE7-BA47B9CCE20E.root
p3
aVroot://cms-xrdr.private.lo:2094//xrd/store/data/Run2016G/SingleMuon/NANOAOD/Nano25Oct2019-v1/40000/2A891693-1E7A-1B4F-BB27-26BF7F311DBE.root
p4
aVroot://cms-xrdr.private.lo:2094//xrd/store/data/Run2016G/SingleMuon/NANOAOD/Nano25Oct2019-v1/40000/2AFBCF45-4D11-7A43-BEB7-D9EAE9E12AAA.root
p5
a.