(lp0
Vroot://cms-xrdr.private.lo:2094//xrd/store/data/Run2018A/EGamma/NANOAOD/Nano1June2019-v1/40000/E759BCCA-8F15-5C46-A22B-09B2EFB9761B.root
p1
aVroot://cms-xrdr.private.lo:2094//xrd/store/data/Run2018A/EGamma/NANOAOD/Nano1June2019-v1/40000/E82D2C28-AC75-CB4D-8D8F-338B82D19767.root
p2
a.