(lp0
Vroot://cms-xrdr.private.lo:2094//xrd/store/data/Run2018D/EGamma/NANOAOD/Nano1June2019-v1/40000/46CFF2B1-8575-EA4A-A2DE-8BF2BF59A6E8.root
p1
aVroot://cms-xrdr.private.lo:2094//xrd/store/data/Run2018D/EGamma/NANOAOD/Nano1June2019-v1/40000/484BD7D2-0453-3E46-ADC9-76D0DF4C50CB.root
p2
a.