(lp0
Vroot://cms-xrdr.private.lo:2094//xrd/store/data/Run2018A/SingleMuon/NANOAOD/Nano1June2019-v1/40000/273E0B49-D3B4-8A47-B808-E3ADD5DB798F.root
p1
aVroot://cms-xrdr.private.lo:2094//xrd/store/data/Run2018A/SingleMuon/NANOAOD/Nano1June2019-v1/40000/28CCDE39-5A60-AF40-B423-DD8867EB11B5.root
p2
a.