(lp0
Vroot://cms-xrdr.private.lo:2094//xrd/store/data/Run2018D/EGamma/NANOAOD/Nano1June2019-v1/40000/192B9CBB-4841-564D-B31B-460FDA58E4D9.root
p1
aVroot://cms-xrdr.private.lo:2094//xrd/store/data/Run2018D/EGamma/NANOAOD/Nano1June2019-v1/40000/1A66285D-B5F8-2F4A-B33A-DA8822CF7EA4.root
p2
a.