(lp0
Vroot://cms-xrdr.private.lo:2094//xrd/store/data/Run2018C/MuonEG/NANOAOD/Nano1June2019-v1/60000/2B537D34-E395-4348-A77E-E4FE2605E3AF.root
p1
aVroot://cms-xrdr.private.lo:2094//xrd/store/data/Run2018C/MuonEG/NANOAOD/Nano1June2019-v1/60000/3C375100-55C7-694C-928F-7E1DFAA812D1.root
p2
a.