(lp0
Vroot://cms-xrdr.private.lo:2094//xrd/store/data/Run2018A/SingleMuon/NANOAOD/Nano1June2019-v1/40000/2AFC554B-E03F-594D-AA34-6BA6ABB9B298.root
p1
aVroot://cms-xrdr.private.lo:2094//xrd/store/data/Run2018A/SingleMuon/NANOAOD/Nano1June2019-v1/40000/34025C62-2D1E-5543-8B91-133ADF43E1A5.root
p2
a.