(lp0
Vroot://cms-xrdr.private.lo:2094//xrd/store/data/Run2018A/EGamma/NANOAOD/Nano1June2019-v1/40000/7E5A1EEB-7D48-5F4B-8A8B-0F47C2827113.root
p1
aVroot://cms-xrdr.private.lo:2094//xrd/store/data/Run2018A/EGamma/NANOAOD/Nano1June2019-v1/40000/7E625B3A-103B-6A47-8B38-8EFBFE523E67.root
p2
a.