(lp0
Vroot://cms-xrdr.private.lo:2094//xrd/store/data/Run2018D/MuonEG/NANOAOD/Nano1June2019_ver2-v1/30000/12199892-16ED-D047-911D-78B521CEDBAD.root
p1
aVroot://cms-xrdr.private.lo:2094//xrd/store/data/Run2018D/MuonEG/NANOAOD/Nano1June2019_ver2-v1/30000/12912B03-467D-D14C-A79B-035F1CB19F54.root
p2
a.