(lp0
Vroot://cms-xrdr.private.lo:2094//xrd/store/data/Run2018A/SingleMuon/NANOAOD/Nano1June2019-v1/40000/DE2590D1-804B-FD48-85FE-926D4369CCFB.root
p1
aVroot://cms-xrdr.private.lo:2094//xrd/store/data/Run2018A/SingleMuon/NANOAOD/Nano1June2019-v1/40000/DE662D99-E6FD-3944-9C10-B6E0CC3EE860.root
p2
a.