(lp0
Vroot://cms-xrdr.private.lo:2094//xrd/store/data/Run2018A/SingleMuon/NANOAOD/Nano1June2019-v1/40000/4FA03F21-3B82-0D44-B7CB-6CF6222BF066.root
p1
aVroot://cms-xrdr.private.lo:2094//xrd/store/data/Run2018A/SingleMuon/NANOAOD/Nano1June2019-v1/40000/513B8918-38EF-4C4B-8A78-5D77F271114F.root
p2
a.