(lp0
Vroot://cms-xrdr.private.lo:2094//xrd/store/data/Run2018D/EGamma/NANOAOD/Nano1June2019-v1/70000/767CBEDC-EBDB-6E47-A1AB-B9228405EB97.root
p1
aVroot://cms-xrdr.private.lo:2094//xrd/store/data/Run2018D/EGamma/NANOAOD/Nano1June2019-v1/70000/772825D6-B8A7-EF41-9079-AE27238151DC.root
p2
a.