(lp0
Vroot://cms-xrdr.private.lo:2094//xrd/store/data/Run2018B/EGamma/NANOAOD/Nano1June2019-v1/40000/007DD158-75A0-DD4E-967E-C1F7E86DE30E.root
p1
aVroot://cms-xrdr.private.lo:2094//xrd/store/data/Run2018B/EGamma/NANOAOD/Nano1June2019-v1/40000/08FA8705-D3C7-484C-B21D-63E3A55F638A.root
p2
a.