(lp0
Vroot://cms-xrdr.private.lo:2094//xrd/store/data/Run2018A/SingleMuon/NANOAOD/Nano1June2019-v1/40000/8D126A08-F099-FD42-9174-5DB0E3B3CAF6.root
p1
aVroot://cms-xrdr.private.lo:2094//xrd/store/data/Run2018A/SingleMuon/NANOAOD/Nano1June2019-v1/40000/8D5EE337-57CC-DC45-A9FA-5F279C8FCEDF.root
p2
a.