(lp0
Vroot://cms-xrdr.private.lo:2094//xrd/store/data/Run2018B/SingleMuon/NANOAOD/Nano1June2019-v1/40000/88E0C8E7-44FE-154C-92CD-813E50EE3A33.root
p1
aVroot://cms-xrdr.private.lo:2094//xrd/store/data/Run2018B/SingleMuon/NANOAOD/Nano1June2019-v1/40000/8DDC8F1B-3796-F04F-9338-5FA7B0EACD7E.root
p2
a.