(lp0
Vroot://cms-xrdr.private.lo:2094//xrd/store/data/Run2018A/DoubleMuon/NANOAOD/Nano1June2019-v1/60000/3B027D13-1772-EF45-A008-B7D1FD4C9B36.root
p1
aVroot://cms-xrdr.private.lo:2094//xrd/store/data/Run2018A/DoubleMuon/NANOAOD/Nano1June2019-v1/60000/42F6A4A2-3887-E345-9A7A-8C52C04A476C.root
p2
a.