(lp0
Vroot://cms-xrdr.private.lo:2094//xrd/store/data/Run2018D/EGamma/NANOAOD/Nano1June2019-v1/40000/989CFCF7-5B40-0D47-A1E7-978CE1C670FC.root
p1
aVroot://cms-xrdr.private.lo:2094//xrd/store/data/Run2018D/EGamma/NANOAOD/Nano1June2019-v1/40000/9A234788-7070-A848-A242-AC549E5456B1.root
p2
a.