(lp0
Vroot://cms-xrdr.private.lo:2094//xrd/store/data/Run2018D/EGamma/NANOAOD/Nano1June2019-v1/70000/552B989A-BFF0-BD4C-AE46-B117432EE9BC.root
p1
aVroot://cms-xrdr.private.lo:2094//xrd/store/data/Run2018D/EGamma/NANOAOD/Nano1June2019-v1/70000/56B7408D-3C92-6B46-9C01-B9539AC75A63.root
p2
a.