(lp0
Vroot://cms-xrdr.private.lo:2094//xrd/store/data/Run2018D/EGamma/NANOAOD/Nano1June2019-v1/70000/3C42B2B2-5E2B-E545-AE31-35D42A5CF9B2.root
p1
aVroot://cms-xrdr.private.lo:2094//xrd/store/data/Run2018D/EGamma/NANOAOD/Nano1June2019-v1/70000/3C49E836-A32D-8044-8954-917572DD992F.root
p2
a.