(lp0
Vroot://cms-xrdr.private.lo:2094//xrd/store/data/Run2018D/MuonEG/NANOAOD/Nano1June2019_ver2-v1/30000/2854D6A8-AEFF-0C40-A3FF-CE616E7D6067.root
p1
aVroot://cms-xrdr.private.lo:2094//xrd/store/data/Run2018D/MuonEG/NANOAOD/Nano1June2019_ver2-v1/30000/2936D176-A70E-DC4C-A899-7D65CB850DF0.root
p2
a.