(lp0
Vroot://cms-xrdr.private.lo:2094//xrd/store/data/Run2018D/EGamma/NANOAOD/Nano1June2019-v1/40000/9AA78CF8-2BD9-8B4C-8545-4F835C2719AB.root
p1
aVroot://cms-xrdr.private.lo:2094//xrd/store/data/Run2018D/EGamma/NANOAOD/Nano1June2019-v1/40000/9CC479D4-F9D3-6943-AE7E-0501DF63A4BD.root
p2
a.