(lp0
Vroot://cms-xrdr.private.lo:2094//xrd/store/data/Run2018D/MuonEG/NANOAOD/Nano1June2019_ver2-v1/70000/55772DEC-BCBF-E042-950E-60DF3F747712.root
p1
aVroot://cms-xrdr.private.lo:2094//xrd/store/data/Run2018D/MuonEG/NANOAOD/Nano1June2019_ver2-v1/70000/55F11DF4-D718-BF4F-B00D-F3DD28BE8BA9.root
p2
a.