(lp0
Vroot://cms-xrdr.private.lo:2094//xrd/store/data/Run2018A/EGamma/NANOAOD/Nano1June2019-v1/40000/80E027E9-68E5-4743-B76B-9DBE1CAF4E2A.root
p1
aVroot://cms-xrdr.private.lo:2094//xrd/store/data/Run2018A/EGamma/NANOAOD/Nano1June2019-v1/40000/81B5236F-0F9F-9C4E-9210-8402C826B0DA.root
p2
a.