(lp0
Vroot://cms-xrdr.private.lo:2094//xrd/store/data/Run2018D/EGamma/NANOAOD/Nano1June2019-v1/70000/4EC1E9AD-28E9-4C43-A264-C3BA4CDB9E6C.root
p1
aVroot://cms-xrdr.private.lo:2094//xrd/store/data/Run2018D/EGamma/NANOAOD/Nano1June2019-v1/70000/4F294C7D-111D-324F-BACB-D2D5316CF32E.root
p2
a.