(lp0
Vroot://cms-xrdr.private.lo:2094//xrd/store/data/Run2018A/SingleMuon/NANOAOD/Nano1June2019-v1/40000/598F07AD-5518-2E4E-9669-283AFDAB1CCB.root
p1
aVroot://cms-xrdr.private.lo:2094//xrd/store/data/Run2018A/SingleMuon/NANOAOD/Nano1June2019-v1/40000/5B4673A5-111C-A64C-AB62-1CD34D5DD6BA.root
p2
a.