(lp0
Vroot://cms-xrdr.private.lo:2094//xrd/store/data/Run2018D/EGamma/NANOAOD/Nano1June2019-v1/40000/54908071-1FED-7D43-A003-556CA402A4F1.root
p1
aVroot://cms-xrdr.private.lo:2094//xrd/store/data/Run2018D/EGamma/NANOAOD/Nano1June2019-v1/40000/55D7D51F-AEB7-8A4F-A8DB-8F8AFB9526C5.root
p2
a.