(lp0
Vroot://cms-xrdr.private.lo:2094//xrd/store/data/Run2018A/EGamma/NANOAOD/Nano1June2019-v1/40000/31BBD0E0-25A3-8443-BF18-12D27A552DD4.root
p1
aVroot://cms-xrdr.private.lo:2094//xrd/store/data/Run2018A/EGamma/NANOAOD/Nano1June2019-v1/40000/33B442BE-4430-BD4A-8FD2-ACB442AC25B9.root
p2
a.