(lp0
Vroot://cms-xrdr.private.lo:2094//xrd/store/data/Run2018C/EGamma/NANOAOD/Nano1June2019-v1/230000/984111BB-71CE-0E4E-A04F-E7C25E9A25F7.root
p1
aVroot://cms-xrdr.private.lo:2094//xrd/store/data/Run2018C/EGamma/NANOAOD/Nano1June2019-v1/230000/9C2F9524-417A-634E-8FCD-C9C2B6853F19.root
p2
a.