(lp0
Vroot://cms-xrdr.private.lo:2094//xrd/store/data/Run2018A/SingleMuon/NANOAOD/Nano1June2019-v1/40000/0A5DBF95-52AA-F341-89EE-C6BB2CD8E082.root
p1
aVroot://cms-xrdr.private.lo:2094//xrd/store/data/Run2018A/SingleMuon/NANOAOD/Nano1June2019-v1/40000/0AAFB354-1D8B-DF4D-8B9D-DEF7A55314EC.root
p2
a.