(lp0
Vroot://cms-xrdr.private.lo:2094//xrd/store/data/Run2018A/DoubleMuon/NANOAOD/Nano1June2019-v1/60000/2391C9C3-3948-0949-AEFE-3AC8665B8A2D.root
p1
aVroot://cms-xrdr.private.lo:2094//xrd/store/data/Run2018A/DoubleMuon/NANOAOD/Nano1June2019-v1/60000/25345592-4FB5-0847-957E-E03E998A8A1E.root
p2
a.