(lp0
Vroot://cms-xrdr.private.lo:2094//xrd/store/data/Run2018D/SingleMuon/NANOAOD/Nano1June2019-v1/40000/C6AABFF4-DAFE-4D45-B8FE-5DC4760C4262.root
p1
aVroot://cms-xrdr.private.lo:2094//xrd/store/data/Run2018D/SingleMuon/NANOAOD/Nano1June2019-v1/40000/C72C8825-063F-9B45-B702-7DDD5FB53F06.root
p2
a.