(lp0
Vroot://cms-xrdr.private.lo:2094//xrd/store/data/Run2018A/DoubleMuon/NANOAOD/Nano1June2019-v1/60000/C3E7581F-EFE1-514C-A606-8EEF3E850CF2.root
p1
aVroot://cms-xrdr.private.lo:2094//xrd/store/data/Run2018A/DoubleMuon/NANOAOD/Nano1June2019-v1/60000/C605F515-395C-4048-BD0A-AD17C807CED9.root
p2
a.