(lp0
Vroot://cms-xrdr.private.lo:2094//xrd/store/data/Run2018A/EGamma/NANOAOD/Nano1June2019-v1/40000/A68C7182-7676-6F41-A468-BC49173FA5F8.root
p1
aVroot://cms-xrdr.private.lo:2094//xrd/store/data/Run2018A/EGamma/NANOAOD/Nano1June2019-v1/40000/A73B43EA-F504-6441-A904-7E8CB51108E3.root
p2
a.