(lp0
Vroot://cms-xrdr.private.lo:2094//xrd/store/data/Run2018D/SingleMuon/NANOAOD/Nano1June2019-v1/40000/3C50BA5D-B5EF-B84C-BEC4-21722B9B9CEB.root
p1
aVroot://cms-xrdr.private.lo:2094//xrd/store/data/Run2018D/SingleMuon/NANOAOD/Nano1June2019-v1/40000/3F493AA8-6B65-FF44-8CAE-BDA55EFFF78E.root
p2
a.