(lp0
Vroot://cms-xrdr.private.lo:2094//xrd/store/data/Run2018A/SingleMuon/NANOAOD/Nano1June2019-v1/30000/AB12B14E-6F05-6B46-9FE0-C3B0CF3F8297.root
p1
aVroot://cms-xrdr.private.lo:2094//xrd/store/data/Run2018A/SingleMuon/NANOAOD/Nano1June2019-v1/30000/C2EF538F-2C14-C04E-B9B2-783B12D9CBB2.root
p2
a.