(lp0
Vroot://cms-xrdr.private.lo:2094//xrd/store/data/Run2018D/EGamma/NANOAOD/Nano1June2019-v1/40000/4D565879-CFD6-A643-AA0A-7B31586047C1.root
p1
aVroot://cms-xrdr.private.lo:2094//xrd/store/data/Run2018D/EGamma/NANOAOD/Nano1June2019-v1/40000/4E6388FC-F9BD-7F49-88D3-818BB1FF401C.root
p2
a.