(lp0
Vroot://cms-xrdr.private.lo:2094//xrd/store/data/Run2018A/EGamma/NANOAOD/Nano1June2019-v1/40000/ECB1109F-D155-F848-BC72-BE47574B97B2.root
p1
aVroot://cms-xrdr.private.lo:2094//xrd/store/data/Run2018A/EGamma/NANOAOD/Nano1June2019-v1/40000/ED0E92CD-D212-5649-B67F-A68BF10E5353.root
p2
a.