(lp0
Vroot://cms-xrdr.private.lo:2094//xrd/store/data/Run2018A/EGamma/NANOAOD/Nano1June2019-v1/40000/5B2CB3AD-5EC4-A241-A9B1-F67A7F5D7837.root
p1
aVroot://cms-xrdr.private.lo:2094//xrd/store/data/Run2018A/EGamma/NANOAOD/Nano1June2019-v1/40000/5C110E17-56D6-2A44-B99D-ACC288656206.root
p2
a.