(lp0
Vroot://cms-xrdr.private.lo:2094//xrd/store/data/Run2018D/DoubleMuon/NANOAOD/Nano1June2019_ver2-v1/40000/1512CCC4-F1E5-4F43-9E47-474FD26CDA05.root
p1
aVroot://cms-xrdr.private.lo:2094//xrd/store/data/Run2018D/DoubleMuon/NANOAOD/Nano1June2019_ver2-v1/40000/1BD1C81E-A25B-8A4F-B10D-6D0F6BC887A6.root
p2
a.