(lp0
Vroot://cms-xrdr.private.lo:2094//xrd/store/data/Run2018B/EGamma/NANOAOD/Nano1June2019-v1/40000/AF2284D8-CB76-BA44-8DEA-B70FBC8CE393.root
p1
aVroot://cms-xrdr.private.lo:2094//xrd/store/data/Run2018B/EGamma/NANOAOD/Nano1June2019-v1/40000/AF642AB0-12BE-444C-9357-0229D6A56BE9.root
p2
a.