(lp0
Vroot://cms-xrdr.private.lo:2094//xrd/store/data/Run2018A/EGamma/NANOAOD/Nano1June2019-v1/40000/859FC7B2-FACB-F640-B23F-A2D61DAC3DD5.root
p1
aVroot://cms-xrdr.private.lo:2094//xrd/store/data/Run2018A/EGamma/NANOAOD/Nano1June2019-v1/40000/86384048-FC98-4144-B494-AE9CAD342BE6.root
p2
a.