(lp0
Vroot://cms-xrdr.private.lo:2094//xrd/store/data/Run2018D/EGamma/NANOAOD/Nano1June2019-v1/70000/AABADB2C-C4A8-5749-B582-B4A3291683FE.root
p1
aVroot://cms-xrdr.private.lo:2094//xrd/store/data/Run2018D/EGamma/NANOAOD/Nano1June2019-v1/70000/ACEBC6C3-5944-944A-882D-5D7E4CC0EF73.root
p2
a.