(lp0
Vroot://cms-xrdr.private.lo:2094//xrd/store/data/Run2018D/MuonEG/NANOAOD/Nano1June2019_ver2-v1/30000/8C9FAD63-C69F-CF48-A38D-5CFFEBEB31D9.root
p1
aVroot://cms-xrdr.private.lo:2094//xrd/store/data/Run2018D/MuonEG/NANOAOD/Nano1June2019_ver2-v1/30000/9166C235-3130-4843-A683-93BF0DD4D4BD.root
p2
a.