(lp0
Vroot://cms-xrdr.private.lo:2094//xrd/store/data/Run2018A/EGamma/NANOAOD/Nano1June2019-v1/40000/1EE2A0DE-7554-8042-B7E5-2F7F7A544907.root
p1
aVroot://cms-xrdr.private.lo:2094//xrd/store/data/Run2018A/EGamma/NANOAOD/Nano1June2019-v1/40000/200E0AF9-6B2F-2049-AAA3-710C472A0220.root
p2
a.