(lp0
Vroot://cms-xrdr.private.lo:2094//xrd/store/data/Run2018D/EGamma/NANOAOD/Nano1June2019-v1/40000/8A4B34B1-C7C6-7743-8234-CE06E04E789C.root
p1
aVroot://cms-xrdr.private.lo:2094//xrd/store/data/Run2018D/EGamma/NANOAOD/Nano1June2019-v1/40000/8C9A7F26-7675-F545-AB1F-8E134922C781.root
p2
a.