(lp0
Vroot://cms-xrdr.private.lo:2094//xrd/store/data/Run2018A/SingleMuon/NANOAOD/Nano1June2019-v1/40000/20D6FE6C-36B9-8442-A875-A7AEC520ACAA.root
p1
aVroot://cms-xrdr.private.lo:2094//xrd/store/data/Run2018A/SingleMuon/NANOAOD/Nano1June2019-v1/40000/21D84C34-A70D-D846-8A02-AF639D7DA160.root
p2
a.