(lp0
Vroot://cms-xrdr.private.lo:2094//xrd/store/data/Run2018B/SingleMuon/NANOAOD/Nano1June2019-v1/40000/6AB4C0DB-6679-B949-AB42-3D5EFA989171.root
p1
aVroot://cms-xrdr.private.lo:2094//xrd/store/data/Run2018B/SingleMuon/NANOAOD/Nano1June2019-v1/40000/6B1D3077-C8BA-5749-AEF1-E8EA0B2E084B.root
p2
a.