(lp0
Vroot://cms-xrdr.private.lo:2094//xrd/store/data/Run2018D/MuonEG/NANOAOD/Nano1June2019_ver2-v1/40000/2DD8EAE4-4D1F-D64D-9ACD-75E9F170DE29.root
p1
aVroot://cms-xrdr.private.lo:2094//xrd/store/data/Run2018D/MuonEG/NANOAOD/Nano1June2019_ver2-v1/40000/3DC084B3-F02A-AE4F-8FF8-F3BB9AE78EC9.root
p2
a.