(lp0
Vroot://cms-xrdr.private.lo:2094//xrd/store/data/Run2018C/EGamma/NANOAOD/Nano1June2019-v1/230000/79A18B12-8933-5A46-88AB-7A26B14B9A55.root
p1
aVroot://cms-xrdr.private.lo:2094//xrd/store/data/Run2018C/EGamma/NANOAOD/Nano1June2019-v1/230000/807FB196-D535-3045-A797-5C8DB431AD6B.root
p2
a.