(lp0
Vroot://cms-xrdr.private.lo:2094//xrd/store/data/Run2018D/EGamma/NANOAOD/Nano1June2019-v1/70000/73BC180A-977E-B249-BC6A-D97573CE5D89.root
p1
aVroot://cms-xrdr.private.lo:2094//xrd/store/data/Run2018D/EGamma/NANOAOD/Nano1June2019-v1/70000/75DC7E6D-BEC9-1048-98EE-1D514415F903.root
p2
a.