(lp0
Vroot://cms-xrdr.private.lo:2094//xrd/store/data/Run2018C/SingleMuon/NANOAOD/Nano1June2019-v1/70000/CAAEA992-CE2C-5946-AA41-C55FA583F59F.root
p1
aVroot://cms-xrdr.private.lo:2094//xrd/store/data/Run2018C/SingleMuon/NANOAOD/Nano1June2019-v1/70000/DC49DE0F-9B77-3946-8258-81A31D12A686.root
p2
a.