(lp0
Vroot://cms-xrdr.private.lo:2094//xrd/store/data/Run2018A/SingleMuon/NANOAOD/Nano1June2019-v1/40000/874AFC87-9CD4-2C40-8833-75ED33317073.root
p1
aVroot://cms-xrdr.private.lo:2094//xrd/store/data/Run2018A/SingleMuon/NANOAOD/Nano1June2019-v1/40000/8AF6E0CF-553B-6A46-AD3A-08A2776C33D4.root
p2
a.