(lp0
Vroot://cms-xrdr.private.lo:2094//xrd/store/data/Run2018D/SingleMuon/NANOAOD/Nano1June2019-v1/40000/BDE60FCF-57D2-4C44-B05C-91D459A18E38.root
p1
aVroot://cms-xrdr.private.lo:2094//xrd/store/data/Run2018D/SingleMuon/NANOAOD/Nano1June2019-v1/40000/C0D43B2A-4876-9E47-BD8D-EDE046FB1175.root
p2
a.