(lp0
Vroot://cms-xrdr.private.lo:2094//xrd/store/data/Run2018C/SingleMuon/NANOAOD/Nano1June2019-v1/70000/7625376A-0EA2-224F-9E62-19E927D4F9D3.root
p1
aVroot://cms-xrdr.private.lo:2094//xrd/store/data/Run2018C/SingleMuon/NANOAOD/Nano1June2019-v1/70000/76D7ADD2-59BC-8F4F-AA5A-2C2172FD4D30.root
p2
a.