(lp0
Vroot://cms-xrdr.private.lo:2094//xrd/store/data/Run2018C/DoubleMuon/NANOAOD/Nano1June2019-v1/40000/68C739B0-A7CE-C44C-B85C-1146A75A3302.root
p1
aVroot://cms-xrdr.private.lo:2094//xrd/store/data/Run2018C/DoubleMuon/NANOAOD/Nano1June2019-v1/40000/92483499-84F4-C440-9318-55BCA9EDE538.root
p2
a.