(lp0
Vroot://cms-xrdr.private.lo:2094//xrd/store/data/Run2018D/DoubleMuon/NANOAOD/Nano1June2019_ver2-v1/30000/BDC1D6E5-0338-F945-922A-5E801FC678F7.root
p1
aVroot://cms-xrdr.private.lo:2094//xrd/store/data/Run2018D/DoubleMuon/NANOAOD/Nano1June2019_ver2-v1/30000/CAE2BB90-0348-5844-BB58-55CBF7F90156.root
p2
a.