(lp0
Vroot://cms-xrdr.private.lo:2094//xrd/store/data/Run2018A/SingleMuon/NANOAOD/Nano1June2019-v1/40000/EA01C3F7-4097-0D40-8219-0274A2EA4F7E.root
p1
aVroot://cms-xrdr.private.lo:2094//xrd/store/data/Run2018A/SingleMuon/NANOAOD/Nano1June2019-v1/40000/EE0520C7-2097-E547-A122-61F0EEAE5EB8.root
p2
a.