(lp0
Vroot://cms-xrdr.private.lo:2094//xrd/store/data/Run2018D/EGamma/NANOAOD/Nano1June2019-v1/40000/4F08D55C-54FA-CB41-BEB1-C6DDF5AE0038.root
p1
aVroot://cms-xrdr.private.lo:2094//xrd/store/data/Run2018D/EGamma/NANOAOD/Nano1June2019-v1/40000/4F0C6385-518A-1F40-A7FB-F1DDEE8A8006.root
p2
a.