(lp0
Vroot://cms-xrdr.private.lo:2094//xrd/store/data/Run2018A/EGamma/NANOAOD/Nano1June2019-v1/40000/20FD5CB0-4A20-1746-992F-E21F1546BEE3.root
p1
aVroot://cms-xrdr.private.lo:2094//xrd/store/data/Run2018A/EGamma/NANOAOD/Nano1June2019-v1/40000/2116C646-0E31-B24C-9E5C-B26EDC369EA1.root
p2
a.