(lp0
Vroot://cms-xrdr.private.lo:2094//xrd/store/data/Run2018D/SingleMuon/NANOAOD/Nano1June2019-v1/30000/10EA3C8B-0053-9B49-B94B-B321B865DD35.root
p1
aVroot://cms-xrdr.private.lo:2094//xrd/store/data/Run2018D/SingleMuon/NANOAOD/Nano1June2019-v1/30000/1391253F-93E8-8747-B966-2FE5C6DC94E7.root
p2
a.