(lp0
Vroot://cms-xrdr.private.lo:2094//xrd/store/data/Run2018A/SingleMuon/NANOAOD/Nano1June2019-v1/40000/1306595B-78E1-9B4D-B4AB-DD1FE683C8AD.root
p1
aVroot://cms-xrdr.private.lo:2094//xrd/store/data/Run2018A/SingleMuon/NANOAOD/Nano1June2019-v1/40000/150E2277-93BA-644B-9B8B-85E80061BEBA.root
p2
a.