(lp0
Vroot://cms-xrdr.private.lo:2094//xrd/store/data/Run2018D/SingleMuon/NANOAOD/Nano1June2019-v1/40000/12CE70FA-4C3D-5F48-8932-E50EAA7C0D30.root
p1
aVroot://cms-xrdr.private.lo:2094//xrd/store/data/Run2018D/SingleMuon/NANOAOD/Nano1June2019-v1/40000/14CCDB29-A560-0B40-B45A-2EEB788A6DC1.root
p2
a.