(lp0
Vroot://cms-xrdr.private.lo:2094//xrd/store/data/Run2018D/SingleMuon/NANOAOD/Nano1June2019-v1/40000/1A55569B-1762-9E4C-A842-3011CE3FBC0D.root
p1
aVroot://cms-xrdr.private.lo:2094//xrd/store/data/Run2018D/SingleMuon/NANOAOD/Nano1June2019-v1/40000/1AAC99D2-BA58-2E4B-B497-D510A6FE42F5.root
p2
a.