(lp0
Vroot://cms-xrdr.private.lo:2094//xrd/store/data/Run2018A/EGamma/NANOAOD/Nano1June2019-v1/40000/24B2506E-3411-A543-BDE6-12E581E77B4D.root
p1
aVroot://cms-xrdr.private.lo:2094//xrd/store/data/Run2018A/EGamma/NANOAOD/Nano1June2019-v1/40000/25656D4E-C1D2-9B44-AB25-0ACBD6A2BAAF.root
p2
a.