(lp0
Vroot://cms-xrdr.private.lo:2094//xrd/store/data/Run2018A/EGamma/NANOAOD/Nano1June2019-v1/40000/EFDE6D2C-55B0-FD4D-9778-1A60D2032D3B.root
p1
aVroot://cms-xrdr.private.lo:2094//xrd/store/data/Run2018A/EGamma/NANOAOD/Nano1June2019-v1/40000/F003C8F5-F9CB-AD4D-94DC-1B5E24258556.root
p2
a.