(lp0
Vroot://cms-xrdr.private.lo:2094//xrd/store/data/Run2018B/SingleMuon/NANOAOD/Nano1June2019-v1/40000/05315C0A-D2A3-FB4A-B57B-0F3E326BB4FD.root
p1
aVroot://cms-xrdr.private.lo:2094//xrd/store/data/Run2018B/SingleMuon/NANOAOD/Nano1June2019-v1/40000/054612D4-663D-CF4E-BE4B-CD203D31BC10.root
p2
a.