(lp0
Vroot://cms-xrdr.private.lo:2094//xrd/store/data/Run2018A/EGamma/NANOAOD/Nano1June2019-v1/40000/648F0290-1804-6241-9497-BB6C19948101.root
p1
aVroot://cms-xrdr.private.lo:2094//xrd/store/data/Run2018A/EGamma/NANOAOD/Nano1June2019-v1/40000/65322DE0-771F-1040-9E34-5A782D070155.root
p2
a.