(lp0
Vroot://cms-xrdr.private.lo:2094//xrd/store/data/Run2018D/EGamma/NANOAOD/Nano1June2019-v1/70000/0E8CBA91-CC11-5447-A5D6-EBAD4209F163.root
p1
aVroot://cms-xrdr.private.lo:2094//xrd/store/data/Run2018D/EGamma/NANOAOD/Nano1June2019-v1/70000/10706ADD-09A0-8B45-9A34-9785944AE3AB.root
p2
a.