(lp0
Vroot://cms-xrdr.private.lo:2094//xrd/store/data/Run2018A/MuonEG/NANOAOD/Nano1June2019-v1/40000/66F1667F-0FAD-AB45-9413-19365AF03F95.root
p1
aVroot://cms-xrdr.private.lo:2094//xrd/store/data/Run2018A/MuonEG/NANOAOD/Nano1June2019-v1/40000/66FCF282-4677-0C4B-9AD4-31A925C6C510.root
p2
a.