(lp0
Vroot://cms-xrdr.private.lo:2094//xrd/store/data/Run2018D/MuonEG/NANOAOD/Nano1June2019_ver2-v1/30000/36CDB6C3-A31A-2D44-A533-F8F2344D6BC9.root
p1
aVroot://cms-xrdr.private.lo:2094//xrd/store/data/Run2018D/MuonEG/NANOAOD/Nano1June2019_ver2-v1/30000/396A2F52-6CE4-1044-859E-AF8AE4A86830.root
p2
a.