(lp0
Vroot://cms-xrdr.private.lo:2094//xrd/store/data/Run2018B/SingleMuon/NANOAOD/Nano1June2019-v1/40000/C0CBAFBC-62CD-1443-86E2-8C62428BA9B7.root
p1
aVroot://cms-xrdr.private.lo:2094//xrd/store/data/Run2018B/SingleMuon/NANOAOD/Nano1June2019-v1/40000/C26D6772-35EF-444E-B44C-B1772F334E16.root
p2
a.