(lp0
Vroot://cms-xrdr.private.lo:2094//xrd/store/data/Run2018B/SingleMuon/NANOAOD/Nano1June2019-v1/40000/AE60F777-3DC7-604B-A62F-1EBEA2AD6C4C.root
p1
aVroot://cms-xrdr.private.lo:2094//xrd/store/data/Run2018B/SingleMuon/NANOAOD/Nano1June2019-v1/40000/B0C6DB83-9912-BA42-839C-B5977BDEC3D8.root
p2
a.