(lp0
Vroot://cms-xrdr.private.lo:2094//xrd/store/data/Run2018A/DoubleMuon/NANOAOD/Nano1June2019-v1/60000/7D0E5920-9ED3-3242-B937-FD2DBBBF4452.root
p1
aVroot://cms-xrdr.private.lo:2094//xrd/store/data/Run2018A/DoubleMuon/NANOAOD/Nano1June2019-v1/60000/83592F75-1D33-D94E-BBCD-0EC81B1C5C44.root
p2
a.