(lp0
Vroot://cms-xrdr.private.lo:2094//xrd/store/data/Run2018D/SingleMuon/NANOAOD/Nano1June2019-v1/40000/2A0B6326-22FE-ED45-9DDD-3758FA208A91.root
p1
aVroot://cms-xrdr.private.lo:2094//xrd/store/data/Run2018D/SingleMuon/NANOAOD/Nano1June2019-v1/40000/2B8D6E89-927B-3645-B5CB-85DFD0B78BD8.root
p2
a.