(lp0
Vroot://cms-xrdr.private.lo:2094//xrd/store/data/Run2018B/EGamma/NANOAOD/Nano1June2019-v1/40000/71251FBD-E784-9240-8EBE-7492E8249581.root
p1
aVroot://cms-xrdr.private.lo:2094//xrd/store/data/Run2018B/EGamma/NANOAOD/Nano1June2019-v1/40000/7211BADC-DE79-F64B-A1F2-1E49FDDD7D13.root
p2
a.