(lp0
Vroot://cms-xrdr.private.lo:2094//xrd/store/data/Run2018A/EGamma/NANOAOD/Nano1June2019-v1/40000/87E01F18-DBFF-CD4F-9824-E531ECFE45D8.root
p1
aVroot://cms-xrdr.private.lo:2094//xrd/store/data/Run2018A/EGamma/NANOAOD/Nano1June2019-v1/40000/8DF77B0D-4655-CE4F-9CCD-BE0CF1BA17D2.root
p2
a.