(lp0
Vroot://cms-xrdr.private.lo:2094//xrd/store/data/Run2018A/EGamma/NANOAOD/Nano1June2019-v1/40000/4605F1F3-93CD-5F4E-BBD9-36E707E04399.root
p1
aVroot://cms-xrdr.private.lo:2094//xrd/store/data/Run2018A/EGamma/NANOAOD/Nano1June2019-v1/40000/4A80717E-D66E-6940-ADA4-277DBE48C2B8.root
p2
a.