(lp0
Vroot://cms-xrdr.private.lo:2094//xrd/store/data/Run2018C/DoubleMuon/NANOAOD/Nano1June2019-v1/60000/4F9AD73D-0368-F748-8ADF-7BE1214122DE.root
p1
aVroot://cms-xrdr.private.lo:2094//xrd/store/data/Run2018C/DoubleMuon/NANOAOD/Nano1June2019-v1/60000/5927B4C3-103D-164E-BB21-E1556F85EFCE.root
p2
a.