(lp0
Vroot://cms-xrdr.private.lo:2094//xrd/store/data/Run2018D/EGamma/NANOAOD/Nano1June2019-v1/40000/06659EF5-DCAE-4941-AD3F-9CBE1B0C43B6.root
p1
aVroot://cms-xrdr.private.lo:2094//xrd/store/data/Run2018D/EGamma/NANOAOD/Nano1June2019-v1/40000/066EF7F4-52B5-7A40-8045-C3E24D785C36.root
p2
a.