(lp0
Vroot://cms-xrdr.private.lo:2094//xrd/store/data/Run2018C/EGamma/NANOAOD/Nano1June2019-v1/40000/130272EC-DC9A-9440-BA1F-187D6F7020B7.root
p1
aVroot://cms-xrdr.private.lo:2094//xrd/store/data/Run2018C/EGamma/NANOAOD/Nano1June2019-v1/40000/3798CD31-5AE6-8F4B-B2B7-8A02E0BBF65D.root
p2
a.