(lp0
Vroot://cms-xrdr.private.lo:2094//xrd/store/data/Run2018A/SingleMuon/NANOAOD/Nano1June2019-v1/40000/66853F1C-EB2B-CA42-9B1E-2213DEC41A13.root
p1
aVroot://cms-xrdr.private.lo:2094//xrd/store/data/Run2018A/SingleMuon/NANOAOD/Nano1June2019-v1/40000/66F202C9-C4BA-E645-BA84-51A1E112ECFD.root
p2
a.