(lp0
Vroot://cms-xrdr.private.lo:2094//xrd/store/data/Run2018D/DoubleMuon/NANOAOD/Nano1June2019_ver2-v1/40000/82A8C329-8848-5644-89D3-90E8F3A1AB80.root
p1
aVroot://cms-xrdr.private.lo:2094//xrd/store/data/Run2018D/DoubleMuon/NANOAOD/Nano1June2019_ver2-v1/40000/852F7FD7-90A6-6845-9D6B-4F5133039259.root
p2
a.