(lp0
Vroot://cms-xrdr.private.lo:2094//xrd/store/data/Run2018C/MuonEG/NANOAOD/Nano1June2019-v1/40000/3BE168FE-4E91-6644-B745-74322F39E8BE.root
p1
aVroot://cms-xrdr.private.lo:2094//xrd/store/data/Run2018C/MuonEG/NANOAOD/Nano1June2019-v1/40000/71212E7A-4FF4-5E4A-AC0A-56624A78F232.root
p2
a.