(lp0
Vroot://cms-xrdr.private.lo:2094//xrd/store/data/Run2018A/DoubleMuon/NANOAOD/Nano1June2019-v1/60000/ECBA0CA0-D1CA-9443-8A28-3A862469E93C.root
p1
aVroot://cms-xrdr.private.lo:2094//xrd/store/data/Run2018A/DoubleMuon/NANOAOD/Nano1June2019-v1/60000/F0CA9EAB-A01E-4143-9CD5-F325B698B982.root
p2
a.