(lp0
Vroot://cms-xrdr.private.lo:2094//xrd/store/data/Run2018D/SingleMuon/NANOAOD/Nano1June2019-v1/40000/1CE1FE2E-60D4-C94F-978E-C68EE5272407.root
p1
aVroot://cms-xrdr.private.lo:2094//xrd/store/data/Run2018D/SingleMuon/NANOAOD/Nano1June2019-v1/40000/1D7E5BA1-06CF-3C48-817F-C89EC0A2A64D.root
p2
a.