(lp0
Vroot://cms-xrdr.private.lo:2094//xrd/store/data/Run2018A/EGamma/NANOAOD/Nano1June2019-v1/40000/5D3322D7-C174-C84E-B4AF-752C29F56781.root
p1
aVroot://cms-xrdr.private.lo:2094//xrd/store/data/Run2018A/EGamma/NANOAOD/Nano1June2019-v1/40000/5F36C5CB-B424-BE47-A57C-052CA97F5D35.root
p2
a.