(lp0
Vroot://cms-xrdr.private.lo:2094//xrd/store/data/Run2018C/SingleMuon/NANOAOD/Nano1June2019-v1/40000/A36E5D95-C966-5843-B91F-E1EC44B21CCD.root
p1
aVroot://cms-xrdr.private.lo:2094//xrd/store/data/Run2018C/SingleMuon/NANOAOD/Nano1June2019-v1/40000/ADEBB9BB-EF49-8446-A35E-56735516602E.root
p2
a.