(lp0
Vroot://cms-xrdr.private.lo:2094//xrd/store/data/Run2018D/DoubleMuon/NANOAOD/Nano1June2019_ver2-v1/40000/1C8F64E0-24FD-F947-93FA-C80EA55745FC.root
p1
aVroot://cms-xrdr.private.lo:2094//xrd/store/data/Run2018D/DoubleMuon/NANOAOD/Nano1June2019_ver2-v1/40000/2015B2DC-31A4-9B42-B035-F4240B8AF9D9.root
p2
a.