(lp0
Vroot://cms-xrdr.private.lo:2094//xrd/store/data/Run2018C/SingleMuon/NANOAOD/Nano1June2019-v1/70000/A2F8F1AA-A714-EF4D-AA46-839F22A46914.root
p1
aVroot://cms-xrdr.private.lo:2094//xrd/store/data/Run2018C/SingleMuon/NANOAOD/Nano1June2019-v1/70000/A4276C81-B3F5-7E47-A3AD-DB9AD10A152A.root
p2
a.