(lp0
Vroot://cms-xrdr.private.lo:2094//xrd/store/data/Run2018D/EGamma/NANOAOD/Nano1June2019-v1/40000/AB95B36C-B2BE-0F4C-8386-BC8EEA47F3E0.root
p1
aVroot://cms-xrdr.private.lo:2094//xrd/store/data/Run2018D/EGamma/NANOAOD/Nano1June2019-v1/40000/AB9A5728-9997-0C49-B1E1-3B3645634729.root
p2
a.