(lp0
Vroot://cms-xrdr.private.lo:2094//xrd/store/data/Run2018B/SingleMuon/NANOAOD/Nano1June2019-v1/40000/D1C8ABA1-EAD3-444A-8B98-AF0C44F8BF6F.root
p1
aVroot://cms-xrdr.private.lo:2094//xrd/store/data/Run2018B/SingleMuon/NANOAOD/Nano1June2019-v1/40000/D284F090-20AC-9246-B1AB-B991AE2AC1AD.root
p2
a.