(lp0
Vroot://cms-xrdr.private.lo:2094//xrd/store/data/Run2018C/EGamma/NANOAOD/Nano1June2019-v1/240000/C1197790-7086-B44A-B2FF-3FB26D5E8E33.root
p1
aVroot://cms-xrdr.private.lo:2094//xrd/store/data/Run2018C/EGamma/NANOAOD/Nano1June2019-v1/240000/C6E05D8B-ECE5-9B43-8594-EFF2B64640F1.root
p2
a.