(lp0
Vroot://cms-xrdr.private.lo:2094//xrd/store/data/Run2018D/MuonEG/NANOAOD/Nano1June2019_ver2-v1/30000/16C824E1-C9CF-DD42-9DD3-E942F234A191.root
p1
aVroot://cms-xrdr.private.lo:2094//xrd/store/data/Run2018D/MuonEG/NANOAOD/Nano1June2019_ver2-v1/30000/2109D72E-0B27-E443-8624-6387E99923CE.root
p2
a.