(lp0
Vroot://cms-xrdr.private.lo:2094//xrd/store/data/Run2018A/DoubleMuon/NANOAOD/Nano1June2019-v1/60000/9710BE88-B5B7-634B-AAA0-D4187B057309.root
p1
aVroot://cms-xrdr.private.lo:2094//xrd/store/data/Run2018A/DoubleMuon/NANOAOD/Nano1June2019-v1/60000/ABAF543A-6F4C-DC41-8D08-819DC699FE0E.root
p2
a.