(lp0
Vroot://cms-xrdr.private.lo:2094//xrd/store/data/Run2018B/EGamma/NANOAOD/Nano1June2019-v1/40000/D62B6CCD-AB96-3047-87B9-8AB38F6ADF56.root
p1
aVroot://cms-xrdr.private.lo:2094//xrd/store/data/Run2018B/EGamma/NANOAOD/Nano1June2019-v1/40000/D98AE1FC-FFFA-2648-A0F4-85AB3EE3981E.root
p2
a.