(lp0
Vroot://cms-xrdr.private.lo:2094//xrd/store/data/Run2018A/EGamma/NANOAOD/Nano1June2019-v1/40000/63B19824-CB42-A54B-B9B9-2BE3E592302B.root
p1
aVroot://cms-xrdr.private.lo:2094//xrd/store/data/Run2018A/EGamma/NANOAOD/Nano1June2019-v1/40000/63D76523-7059-A644-8AB7-C4C357F2876C.root
p2
a.