(lp0
Vroot://cms-xrdr.private.lo:2094//xrd/store/data/Run2018B/MuonEG/NANOAOD/Nano1June2019-v1/40000/0DD602C5-9BD9-F84B-8455-15EFC0AA609A.root
p1
aVroot://cms-xrdr.private.lo:2094//xrd/store/data/Run2018B/MuonEG/NANOAOD/Nano1June2019-v1/40000/20A57C48-FDD0-9842-ACDD-A150AC8076FA.root
p2
a.