(lp0
Vroot://cms-xrdr.private.lo:2094//xrd/store/data/Run2018B/SingleMuon/NANOAOD/Nano1June2019-v1/40000/2BA235EA-1B08-734E-8132-CE704FDCDBF1.root
p1
aVroot://cms-xrdr.private.lo:2094//xrd/store/data/Run2018B/SingleMuon/NANOAOD/Nano1June2019-v1/40000/2EE08458-B7BA-6D46-A986-24AD01E5A298.root
p2
a.