(lp0
Vroot://cms-xrdr.private.lo:2094//xrd/store/data/Run2018A/MuonEG/NANOAOD/Nano1June2019-v1/40000/392E3AB7-8E6D-4C49-9031-1EE9F9F4B99C.root
p1
aVroot://cms-xrdr.private.lo:2094//xrd/store/data/Run2018A/MuonEG/NANOAOD/Nano1June2019-v1/40000/3BD5D5F8-04AF-9A44-A610-7DE14DACB62E.root
p2
a.