(lp0
Vroot://cms-xrdr.private.lo:2094//xrd/store/data/Run2018D/SingleMuon/NANOAOD/Nano1June2019-v1/40000/23C1F0A5-492E-B049-8BBB-B5537924B6B8.root
p1
aVroot://cms-xrdr.private.lo:2094//xrd/store/data/Run2018D/SingleMuon/NANOAOD/Nano1June2019-v1/40000/23E75F8B-D56E-B940-9201-DECE284D7A7B.root
p2
a.