(lp0
Vroot://cms-xrdr.private.lo:2094//xrd/store/data/Run2018A/DoubleMuon/NANOAOD/Nano1June2019-v1/60000/0E9AAC09-1A26-0A45-BF7B-AE9C9C23F7EA.root
p1
aVroot://cms-xrdr.private.lo:2094//xrd/store/data/Run2018A/DoubleMuon/NANOAOD/Nano1June2019-v1/60000/0F8BEEA4-BCDB-C641-8F0D-D41766BEE216.root
p2
a.