(lp0
Vroot://cms-xrdr.private.lo:2094//xrd/store/data/Run2018D/EGamma/NANOAOD/Nano1June2019-v1/40000/9F55FC9F-7F1B-E840-8C9F-979F28683BD3.root
p1
aVroot://cms-xrdr.private.lo:2094//xrd/store/data/Run2018D/EGamma/NANOAOD/Nano1June2019-v1/40000/A12DB8E2-F364-4F4C-8767-82BABA7E5500.root
p2
a.