(lp0
Vroot://cms-xrdr.private.lo:2094//xrd/store/data/Run2018B/EGamma/NANOAOD/Nano1June2019-v1/40000/55D37787-973F-0E4C-A82B-864103872D90.root
p1
aVroot://cms-xrdr.private.lo:2094//xrd/store/data/Run2018B/EGamma/NANOAOD/Nano1June2019-v1/40000/5BACAC08-F321-CB4C-8DFB-00BA3222FCC3.root
p2
a.