(lp0
Vroot://cms-xrdr.private.lo:2094//xrd/store/data/Run2018B/EGamma/NANOAOD/Nano1June2019-v1/40000/1C92319A-8F53-7144-99BF-F9C4B9148117.root
p1
aVroot://cms-xrdr.private.lo:2094//xrd/store/data/Run2018B/EGamma/NANOAOD/Nano1June2019-v1/40000/24EEAA2A-442C-B547-9678-B0FEEF3EAEF4.root
p2
a.