(lp0
Vroot://cms-xrdr.private.lo:2094//xrd/store/data/Run2018A/EGamma/NANOAOD/Nano1June2019-v1/40000/25DA9DE1-6286-DD4E-BE1A-63C0B1962A14.root
p1
aVroot://cms-xrdr.private.lo:2094//xrd/store/data/Run2018A/EGamma/NANOAOD/Nano1June2019-v1/40000/26AEE57F-464D-0940-8A09-3734867C408C.root
p2
a.