(lp0
Vroot://cms-xrdr.private.lo:2094//xrd/store/data/Run2018D/MuonEG/NANOAOD/Nano1June2019_ver2-v1/70000/C8A93338-0D36-DC43-B221-C7A3D2C189E4.root
p1
aVroot://cms-xrdr.private.lo:2094//xrd/store/data/Run2018D/MuonEG/NANOAOD/Nano1June2019_ver2-v1/70000/DFA551E8-A0CE-474D-ABCF-BD0ADE870E99.root
p2
a.