(lp0
Vroot://cms-xrdr.private.lo:2094//xrd/store/data/Run2018A/EGamma/NANOAOD/Nano1June2019-v1/40000/7F8E5EFA-DF69-3442-8741-B04F7313B3B1.root
p1
aVroot://cms-xrdr.private.lo:2094//xrd/store/data/Run2018A/EGamma/NANOAOD/Nano1June2019-v1/40000/803BB2F1-940A-ED48-A016-7562B9217D6D.root
p2
a.