(lp0
Vroot://cms-xrdr.private.lo:2094//xrd/store/data/Run2018A/MuonEG/NANOAOD/Nano1June2019-v1/40000/CC667FA6-5B09-E14D-9762-FC355C01CC5E.root
p1
aVroot://cms-xrdr.private.lo:2094//xrd/store/data/Run2018A/MuonEG/NANOAOD/Nano1June2019-v1/40000/CD55DB3E-C023-294A-B672-AC6FFFB5B7CB.root
p2
a.