(lp0
Vroot://cms-xrdr.private.lo:2094//xrd/store/data/Run2018A/EGamma/NANOAOD/Nano1June2019-v1/40000/33E233DC-0EAF-7146-ABAB-0497E8CA961A.root
p1
aVroot://cms-xrdr.private.lo:2094//xrd/store/data/Run2018A/EGamma/NANOAOD/Nano1June2019-v1/40000/3478D057-6AE7-524D-A94E-40DDA380CD89.root
p2
a.