(lp0
Vroot://cms-xrdr.private.lo:2094//xrd/store/data/Run2018B/SingleMuon/NANOAOD/Nano1June2019-v1/40000/A45602AB-FA92-3E4D-B4B5-56FEA7E4FD43.root
p1
aVroot://cms-xrdr.private.lo:2094//xrd/store/data/Run2018B/SingleMuon/NANOAOD/Nano1June2019-v1/40000/A48B2CE2-A984-6443-8C94-09D7225C8732.root
p2
a.