(lp0
Vroot://cms-xrdr.private.lo:2094//xrd/store/data/Run2018D/DoubleMuon/NANOAOD/Nano1June2019_ver2-v1/40000/3EFF63FD-B3FF-3A4E-8738-E8B66A67E4A7.root
p1
aVroot://cms-xrdr.private.lo:2094//xrd/store/data/Run2018D/DoubleMuon/NANOAOD/Nano1June2019_ver2-v1/40000/401DDC3B-5FA2-6242-B3EE-84E44E41EECD.root
p2
a.