(lp0
Vroot://cms-xrdr.private.lo:2094//xrd/store/data/Run2018A/EGamma/NANOAOD/Nano1June2019-v1/40000/827F67B2-0338-E149-952F-92EE3B84A894.root
p1
aVroot://cms-xrdr.private.lo:2094//xrd/store/data/Run2018A/EGamma/NANOAOD/Nano1June2019-v1/40000/836465EB-083C-9047-B334-6F892255936E.root
p2
a.