(lp0
Vroot://cms-xrdr.private.lo:2094//xrd/store/data/Run2018A/MuonEG/NANOAOD/Nano1June2019-v1/40000/14C2ADB8-1E8B-8A45-A9A2-605D9EFC438C.root
p1
aVroot://cms-xrdr.private.lo:2094//xrd/store/data/Run2018A/MuonEG/NANOAOD/Nano1June2019-v1/40000/218162EB-F88D-134D-B01B-794C8CA5F4B1.root
p2
a.