(lp0
Vroot://cms-xrdr.private.lo:2094//xrd/store/data/Run2018B/EGamma/NANOAOD/Nano1June2019-v1/40000/CDDF4841-3A3B-DF47-91E5-3FFF1C34A1A4.root
p1
aVroot://cms-xrdr.private.lo:2094//xrd/store/data/Run2018B/EGamma/NANOAOD/Nano1June2019-v1/40000/CF7BF4DD-5E44-D449-9720-99B49C10B3BE.root
p2
a.