(lp0
Vroot://cms-xrdr.private.lo:2094//xrd/store/data/Run2018D/MuonEG/NANOAOD/Nano1June2019_ver2-v1/30000/29CFBA6E-B5BC-EA45-8954-4D43D40E6316.root
p1
aVroot://cms-xrdr.private.lo:2094//xrd/store/data/Run2018D/MuonEG/NANOAOD/Nano1June2019_ver2-v1/30000/322FA8A2-9793-DE40-A59D-ABA8A5257E3F.root
p2
a.