(lp0
Vroot://cms-xrdr.private.lo:2094//xrd/store/data/Run2018A/EGamma/NANOAOD/Nano1June2019-v1/40000/C5DA4E1E-C17A-5140-812C-BBE2837FD6C9.root
p1
aVroot://cms-xrdr.private.lo:2094//xrd/store/data/Run2018A/EGamma/NANOAOD/Nano1June2019-v1/40000/C77E5E5E-6210-454A-81CE-58D854308D42.root
p2
a.