(lp0
Vroot://cms-xrdr.private.lo:2094//xrd/store/data/Run2018D/DoubleMuon/NANOAOD/Nano1June2019_ver2-v1/40000/D840CD39-43B0-1E45-B3B1-EB4F3AFCA3E8.root
p1
aVroot://cms-xrdr.private.lo:2094//xrd/store/data/Run2018D/DoubleMuon/NANOAOD/Nano1June2019_ver2-v1/40000/DA4BA22B-A342-6045-9F2A-A120205E50BC.root
p2
a.