(lp0
Vroot://cms-xrdr.private.lo:2094//xrd/store/data/Run2018D/EGamma/NANOAOD/Nano1June2019-v1/70000/ED83B2C5-A6EA-774F-8492-66151670613F.root
p1
aVroot://cms-xrdr.private.lo:2094//xrd/store/data/Run2018D/EGamma/NANOAOD/Nano1June2019-v1/70000/EE330340-7E3A-4B43-87FB-DFB0522BDAB0.root
p2
a.