(lp0
Vroot://cms-xrdr.private.lo:2094//xrd/store/data/Run2018C/SingleMuon/NANOAOD/Nano1June2019-v1/70000/26E4BC57-FC93-BE4F-8D75-685D5178886F.root
p1
aVroot://cms-xrdr.private.lo:2094//xrd/store/data/Run2018C/SingleMuon/NANOAOD/Nano1June2019-v1/70000/3306E5B9-110C-664A-8B3E-DD4DAE1356E4.root
p2
a.