(lp0
Vroot://cms-xrdr.private.lo:2094//xrd/store/data/Run2018A/MuonEG/NANOAOD/Nano1June2019-v1/40000/812E4FBE-24F5-4B42-AD9A-519ACAD06A34.root
p1
aVroot://cms-xrdr.private.lo:2094//xrd/store/data/Run2018A/MuonEG/NANOAOD/Nano1June2019-v1/40000/9E8E36A0-6342-E443-94E5-687F18D2DF21.root
p2
a.