(lp0
Vroot://cms-xrdr.private.lo:2094//xrd/store/data/Run2018D/EGamma/NANOAOD/Nano1June2019-v1/40000/84A318DB-5ECD-5F4A-9568-CD96CD91073A.root
p1
aVroot://cms-xrdr.private.lo:2094//xrd/store/data/Run2018D/EGamma/NANOAOD/Nano1June2019-v1/40000/8657D1EE-38F6-3441-A7C1-56BA29C3AC50.root
p2
a.