(lp0
Vroot://cms-xrdr.private.lo:2094//xrd/store/data/Run2018D/SingleMuon/NANOAOD/Nano1June2019-v1/40000/0BFD8149-234C-4449-B62B-083FFDA1EFAC.root
p1
aVroot://cms-xrdr.private.lo:2094//xrd/store/data/Run2018D/SingleMuon/NANOAOD/Nano1June2019-v1/40000/0F857365-00E0-0B47-B2EE-4ABA850CD1D6.root
p2
a.