(lp0
Vroot://cms-xrdr.private.lo:2094//xrd/store/data/Run2018A/SingleMuon/NANOAOD/Nano1June2019-v1/40000/C5BF8DA2-2877-064D-92AC-4ED64E8B17BD.root
p1
aVroot://cms-xrdr.private.lo:2094//xrd/store/data/Run2018A/SingleMuon/NANOAOD/Nano1June2019-v1/40000/C5E207B6-0B37-E145-9394-3EDF0D180ADE.root
p2
a.