(lp0
Vroot://cms-xrdr.private.lo:2094//xrd/store/data/Run2018B/EGamma/NANOAOD/Nano1June2019-v1/40000/9A2EEEF8-A850-0445-9106-4D922F991E32.root
p1
aVroot://cms-xrdr.private.lo:2094//xrd/store/data/Run2018B/EGamma/NANOAOD/Nano1June2019-v1/40000/9B8CD0D3-8D07-A84F-959F-28548525ED9C.root
p2
a.