(lp0
Vroot://cms-xrdr.private.lo:2094//xrd/store/data/Run2018B/EGamma/NANOAOD/Nano1June2019-v1/40000/09A9D2EE-932A-F048-AC51-AE15D8518D54.root
p1
aVroot://cms-xrdr.private.lo:2094//xrd/store/data/Run2018B/EGamma/NANOAOD/Nano1June2019-v1/40000/0DC70952-FA7B-0841-BF6D-F93F7491FB6F.root
p2
a.