(lp0
Vroot://cms-xrdr.private.lo:2094//xrd/store/data/Run2018D/SingleMuon/NANOAOD/Nano1June2019-v1/40000/BB46AEEA-0D5C-FC43-A391-FB45DCBAFC4D.root
p1
aVroot://cms-xrdr.private.lo:2094//xrd/store/data/Run2018D/SingleMuon/NANOAOD/Nano1June2019-v1/40000/BC4ECD6C-DB0C-0A4F-9646-0B9F09E72231.root
p2
a.