(lp0
Vroot://cms-xrdr.private.lo:2094//xrd/store/data/Run2018A/DoubleMuon/NANOAOD/Nano1June2019-v1/60000/83E5A471-4645-E14B-BD21-D83291B3C590.root
p1
aVroot://cms-xrdr.private.lo:2094//xrd/store/data/Run2018A/DoubleMuon/NANOAOD/Nano1June2019-v1/60000/869D4645-A7CA-8046-A9B8-CA53FA163EFC.root
p2
a.