(lp0
Vroot://cms-xrdr.private.lo:2094//xrd/store/data/Run2018C/SingleMuon/NANOAOD/Nano1June2019-v1/40000/1A3D1914-8D7B-E34A-AF80-3542740FAF82.root
p1
aVroot://cms-xrdr.private.lo:2094//xrd/store/data/Run2018C/SingleMuon/NANOAOD/Nano1June2019-v1/40000/1D90BF81-4466-074E-81A0-9A4F13DCD488.root
p2
a.