(lp0
Vroot://cms-xrdr.private.lo:2094//xrd/store/data/Run2018D/EGamma/NANOAOD/Nano1June2019-v1/70000/BA6B30AD-7409-4149-8547-E078DFB29767.root
p1
aVroot://cms-xrdr.private.lo:2094//xrd/store/data/Run2018D/EGamma/NANOAOD/Nano1June2019-v1/70000/BA7CFEEC-E16B-F841-AF0D-75397576C772.root
p2
a.