(lp0
Vroot://cms-xrdr.private.lo:2094//xrd/store/data/Run2018D/SingleMuon/NANOAOD/Nano1June2019-v1/30000/C238F40E-2B42-2D4C-9ADF-63E65D74106B.root
p1
aVroot://cms-xrdr.private.lo:2094//xrd/store/data/Run2018D/SingleMuon/NANOAOD/Nano1June2019-v1/30000/D4F8C03E-6B67-7444-85E3-9F5BCB0D5671.root
p2
a.