(lp0
Vroot://cms-xrdr.private.lo:2094//xrd/store/data/Run2018D/EGamma/NANOAOD/Nano1June2019-v1/70000/375028D6-A5F8-9A42-A104-FA3EF7CB0B2D.root
p1
aVroot://cms-xrdr.private.lo:2094//xrd/store/data/Run2018D/EGamma/NANOAOD/Nano1June2019-v1/70000/3BEDF38A-CDD4-C24C-87E3-19FC332105E2.root
p2
a.