(lp0
Vroot://cms-xrdr.private.lo:2094//xrd/store/data/Run2018A/DoubleMuon/NANOAOD/Nano1June2019-v1/60000/34393AC9-1B18-CD4D-B959-367403F3A5FD.root
p1
aVroot://cms-xrdr.private.lo:2094//xrd/store/data/Run2018A/DoubleMuon/NANOAOD/Nano1June2019-v1/60000/370437D5-D4E1-9A44-9669-3520CA46CF9A.root
p2
a.