(lp0
Vroot://cms-xrdr.private.lo:2094//xrd/store/data/Run2018D/SingleMuon/NANOAOD/Nano1June2019-v1/40000/9E7B48E8-34ED-BB42-8DF1-08755CE524D4.root
p1
aVroot://cms-xrdr.private.lo:2094//xrd/store/data/Run2018D/SingleMuon/NANOAOD/Nano1June2019-v1/40000/9F211240-76A5-C345-B037-BD5A3FCC87E9.root
p2
a.