(lp0
Vroot://cms-xrdr.private.lo:2094//xrd/store/data/Run2018D/EGamma/NANOAOD/Nano1June2019-v1/40000/6B58F926-EA9F-324B-9C0B-99ACAB459FCE.root
p1
aVroot://cms-xrdr.private.lo:2094//xrd/store/data/Run2018D/EGamma/NANOAOD/Nano1June2019-v1/40000/6C574BE0-BD81-094D-B9EC-1E623570852A.root
p2
a.