(lp0
Vroot://cms-xrdr.private.lo:2094//xrd/store/data/Run2018D/MuonEG/NANOAOD/Nano1June2019_ver2-v1/70000/4F5DC6E7-C016-FD4A-83FA-7F44AE8CDE06.root
p1
aVroot://cms-xrdr.private.lo:2094//xrd/store/data/Run2018D/MuonEG/NANOAOD/Nano1June2019_ver2-v1/70000/4FF79B72-BEE2-2C4E-A9A5-898E87CC972D.root
p2
a.