(lp0
Vroot://cms-xrdr.private.lo:2094//xrd/store/data/Run2018C/DoubleMuon/NANOAOD/Nano1June2019-v1/60000/71E09826-ABA3-884A-9019-C974660BD9A8.root
p1
aVroot://cms-xrdr.private.lo:2094//xrd/store/data/Run2018C/DoubleMuon/NANOAOD/Nano1June2019-v1/60000/A6BC3EAF-4EF2-7E48-809E-7FD0FDF00C9F.root
p2
a.