(lp0
Vroot://cms-xrdr.private.lo:2094//xrd/store/data/Run2018B/EGamma/NANOAOD/Nano1June2019-v1/40000/E026CF4E-DBB2-A14D-B66D-F66CF29C0060.root
p1
aVroot://cms-xrdr.private.lo:2094//xrd/store/data/Run2018B/EGamma/NANOAOD/Nano1June2019-v1/40000/E1095CAA-1E50-0249-816A-EBD55B4FB1BE.root
p2
a.