(lp0
Vroot://cms-xrdr.private.lo:2094//xrd/store/data/Run2018A/SingleMuon/NANOAOD/Nano1June2019-v1/30000/4651C40E-1E8E-7E44-A484-656E6A95A782.root
p1
aVroot://cms-xrdr.private.lo:2094//xrd/store/data/Run2018A/SingleMuon/NANOAOD/Nano1June2019-v1/30000/484EC9EC-0421-6743-8155-DCDD115E3B7F.root
p2
a.