(lp0
Vroot://cms-xrdr.private.lo:2094//xrd/store/data/Run2018D/EGamma/NANOAOD/Nano1June2019-v1/40000/228AEEB1-FEF5-C542-9B3F-6E1F5400163E.root
p1
aVroot://cms-xrdr.private.lo:2094//xrd/store/data/Run2018D/EGamma/NANOAOD/Nano1June2019-v1/40000/22A4EB49-69D6-DC43-8B34-5AD8471F6F45.root
p2
a.