(lp0
Vroot://cms-xrdr.private.lo:2094//xrd/store/data/Run2018D/EGamma/NANOAOD/Nano1June2019-v1/70000/5D944933-BFB0-B247-8F3D-D3859D410EB4.root
p1
aVroot://cms-xrdr.private.lo:2094//xrd/store/data/Run2018D/EGamma/NANOAOD/Nano1June2019-v1/70000/60145FAC-AB3C-6147-AC25-C0670198949C.root
p2
a.