(lp0
Vroot://cms-xrdr.private.lo:2094//xrd/store/data/Run2018B/EGamma/NANOAOD/Nano1June2019-v1/40000/47077F9D-A175-CF4E-8030-432E8CF5DEEB.root
p1
aVroot://cms-xrdr.private.lo:2094//xrd/store/data/Run2018B/EGamma/NANOAOD/Nano1June2019-v1/40000/48F1BC36-0A2B-D545-8605-CA42F5B4D2C9.root
p2
a.