(lp0
Vroot://cms-xrdr.private.lo:2094//xrd/store/data/Run2018D/EGamma/NANOAOD/Nano1June2019-v1/70000/0749644F-9F5A-6E48-97A0-CA9A892C848D.root
p1
aVroot://cms-xrdr.private.lo:2094//xrd/store/data/Run2018D/EGamma/NANOAOD/Nano1June2019-v1/70000/0810DE4B-B05C-9646-8CAF-DEF641BC02D6.root
p2
a.