(lp0
Vroot://cms-xrdr.private.lo:2094//xrd/store/data/Run2018D/SingleMuon/NANOAOD/Nano1June2019-v1/30000/3F7E54A7-85F5-1A47-9EFD-883C87369126.root
p1
aVroot://cms-xrdr.private.lo:2094//xrd/store/data/Run2018D/SingleMuon/NANOAOD/Nano1June2019-v1/30000/4048EF21-9FD2-F747-830C-3B0EBEDEF6A1.root
p2
a.