(lp0
Vroot://cms-xrdr.private.lo:2094//xrd/store/data/Run2018A/SingleMuon/NANOAOD/Nano1June2019-v1/40000/CB2CA609-3A62-A643-A069-6E5C20501FAA.root
p1
aVroot://cms-xrdr.private.lo:2094//xrd/store/data/Run2018A/SingleMuon/NANOAOD/Nano1June2019-v1/40000/CBFA363A-1D6F-E34D-900B-1CA144A2A6F8.root
p2
a.