(lp0
Vroot://cms-xrdr.private.lo:2094//xrd/store/data/Run2018C/DoubleMuon/NANOAOD/Nano1June2019-v1/60000/0084051F-85FC-A049-89F6-AFB9D2987D08.root
p1
aVroot://cms-xrdr.private.lo:2094//xrd/store/data/Run2018C/DoubleMuon/NANOAOD/Nano1June2019-v1/60000/05EEA572-1FFA-B14E-ABDE-3781923D4429.root
p2
a.