(lp0
Vroot://cms-xrdr.private.lo:2094//xrd/store/data/Run2018A/SingleMuon/NANOAOD/Nano1June2019-v1/40000/05EEECEA-576E-3349-9507-B86572E5DA9E.root
p1
aVroot://cms-xrdr.private.lo:2094//xrd/store/data/Run2018A/SingleMuon/NANOAOD/Nano1June2019-v1/40000/06BA5ABB-12C0-9441-A72B-8C8190FE6859.root
p2
a.