(lp0
Vroot://cms-xrdr.private.lo:2094//xrd/store/data/Run2018A/EGamma/NANOAOD/Nano1June2019-v1/40000/702D9A2D-24C1-AF4E-8181-73AEA51258C6.root
p1
aVroot://cms-xrdr.private.lo:2094//xrd/store/data/Run2018A/EGamma/NANOAOD/Nano1June2019-v1/40000/720B6BF2-ABD5-2146-9FB3-D6FA3C1BCF82.root
p2
a.