(lp0
Vroot://cms-xrdr.private.lo:2094//xrd/store/data/Run2018D/SingleMuon/NANOAOD/Nano1June2019-v1/40000/46CD5A23-5ED3-8149-89B4-BAA49E9A425A.root
p1
aVroot://cms-xrdr.private.lo:2094//xrd/store/data/Run2018D/SingleMuon/NANOAOD/Nano1June2019-v1/40000/46EAC3E2-AFBE-264C-AEC3-7BB2B9D9B8C9.root
p2
a.