(lp0
Vroot://cms-xrdr.private.lo:2094//xrd/store/data/Run2018A/DoubleMuon/NANOAOD/Nano1June2019-v1/60000/54DF4A9E-90FD-AC4B-B068-678289513ED1.root
p1
aVroot://cms-xrdr.private.lo:2094//xrd/store/data/Run2018A/DoubleMuon/NANOAOD/Nano1June2019-v1/60000/580415FC-E5CD-D645-B71E-46B2D1B4DDA1.root
p2
a.