(lp0
Vroot://cms-xrdr.private.lo:2094//xrd/store/data/Run2018B/MuonEG/NANOAOD/Nano1June2019-v1/40000/2DC9A711-6A22-E749-B26D-A1F55900DAB7.root
p1
aVroot://cms-xrdr.private.lo:2094//xrd/store/data/Run2018B/MuonEG/NANOAOD/Nano1June2019-v1/40000/40A04CB3-F710-2D4A-B9DB-A72973C1570E.root
p2
a.