(lp0
Vroot://cms-xrdr.private.lo:2094//xrd/store/data/Run2018D/SingleMuon/NANOAOD/Nano1June2019-v1/40000/1B4AD69E-1C67-9A43-A262-A9051283DFBA.root
p1
aVroot://cms-xrdr.private.lo:2094//xrd/store/data/Run2018D/SingleMuon/NANOAOD/Nano1June2019-v1/40000/1B5BD6BD-03BC-EE47-A8C6-1A4E84CC400C.root
p2
a.