(lp0
Vroot://cms-xrdr.private.lo:2094//xrd/store/data/Run2018D/EGamma/NANOAOD/Nano1June2019-v1/40000/5E0CB98E-CA86-AD4A-AAAB-EDCE85C81012.root
p1
aVroot://cms-xrdr.private.lo:2094//xrd/store/data/Run2018D/EGamma/NANOAOD/Nano1June2019-v1/40000/5FCB54FC-1B4B-BC4F-A93F-15FCD3207300.root
p2
a.