(lp0
Vroot://cms-xrdr.private.lo:2094//xrd/store/data/Run2018C/EGamma/NANOAOD/Nano1June2019-v1/230000/37CF84DA-5C5D-104F-BCF5-5611B74FD8DB.root
p1
aVroot://cms-xrdr.private.lo:2094//xrd/store/data/Run2018C/EGamma/NANOAOD/Nano1June2019-v1/230000/4EF9C92D-182F-F74D-9589-838FEDA280EB.root
p2
a.