(lp0
Vroot://cms-xrdr.private.lo:2094//xrd/store/data/Run2018A/SingleMuon/NANOAOD/Nano1June2019-v1/30000/1A4CDBBE-3CCC-C940-8216-CB80AC0A88F6.root
p1
aVroot://cms-xrdr.private.lo:2094//xrd/store/data/Run2018A/SingleMuon/NANOAOD/Nano1June2019-v1/30000/1E88E958-5CAE-DE43-9596-97AFEF5C791D.root
p2
a.