(lp0
Vroot://cms-xrdr.private.lo:2094//xrd/store/data/Run2018C/EGamma/NANOAOD/Nano1June2019-v1/230000/26FB1459-23B1-9D46-9A02-3F76E0C18C71.root
p1
aVroot://cms-xrdr.private.lo:2094//xrd/store/data/Run2018C/EGamma/NANOAOD/Nano1June2019-v1/230000/2A696B7C-DA4A-4242-B47F-4761F693493E.root
p2
a.