(lp0
Vroot://cms-xrdr.private.lo:2094//xrd/store/data/Run2018B/SingleMuon/NANOAOD/Nano1June2019-v1/40000/70A9058B-F385-584E-ACCA-AD45DD840B9B.root
p1
aVroot://cms-xrdr.private.lo:2094//xrd/store/data/Run2018B/SingleMuon/NANOAOD/Nano1June2019-v1/40000/793AED25-14EF-C447-BC16-9E2294741C96.root
p2
a.