(lp0
Vroot://cms-xrdr.private.lo:2094//xrd/store/data/Run2018A/SingleMuon/NANOAOD/Nano1June2019-v1/40000/B9B2BF5F-4962-4C47-BE9F-CAF77E9C7A47.root
p1
aVroot://cms-xrdr.private.lo:2094//xrd/store/data/Run2018A/SingleMuon/NANOAOD/Nano1June2019-v1/40000/BC5227B3-6DAA-4C44-BFF4-C3F9B3B6AC97.root
p2
a.