(lp0
Vroot://cms-xrdr.private.lo:2094//xrd/store/data/Run2018A/EGamma/NANOAOD/Nano1June2019-v1/40000/95B14DE5-5536-E142-BE83-0B093AB7A58D.root
p1
aVroot://cms-xrdr.private.lo:2094//xrd/store/data/Run2018A/EGamma/NANOAOD/Nano1June2019-v1/40000/998F34B4-36FE-9440-AFA9-14835930FC3A.root
p2
a.