(lp0
Vroot://cms-xrdr.private.lo:2094//xrd/store/data/Run2018D/SingleMuon/NANOAOD/Nano1June2019-v1/40000/CE6E7729-BCF6-B64A-9CA0-A91C4244EF40.root
p1
aVroot://cms-xrdr.private.lo:2094//xrd/store/data/Run2018D/SingleMuon/NANOAOD/Nano1June2019-v1/40000/D02491CF-A871-C24C-A2E4-6A788D5F6953.root
p2
a.