(lp0
Vroot://cms-xrdr.private.lo:2094//xrd/store/data/Run2018D/EGamma/NANOAOD/Nano1June2019-v1/70000/142AAF84-7DF6-1F48-9440-48520989E336.root
p1
aVroot://cms-xrdr.private.lo:2094//xrd/store/data/Run2018D/EGamma/NANOAOD/Nano1June2019-v1/70000/165C1F37-1A7A-E049-91BF-79CE2C5834D8.root
p2
a.