(lp0
Vroot://cms-xrdr.private.lo:2094//xrd/store/data/Run2018D/EGamma/NANOAOD/Nano1June2019-v1/70000/BF000228-BE9D-494E-983D-49E8E8C280A1.root
p1
aVroot://cms-xrdr.private.lo:2094//xrd/store/data/Run2018D/EGamma/NANOAOD/Nano1June2019-v1/70000/C74E90EC-BAC0-8C43-8DFA-7EF141875E04.root
p2
a.