(lp0
Vroot://cms-xrdr.private.lo:2094//xrd/store/data/Run2018B/DoubleMuon/NANOAOD/Nano1June2019-v1/40000/B4CDB819-0573-394E-8FC0-3DB5EB6DCFD9.root
p1
aVroot://cms-xrdr.private.lo:2094//xrd/store/data/Run2018B/DoubleMuon/NANOAOD/Nano1June2019-v1/40000/BD917DB0-AB7B-AA4A-89DB-1B1808F0B79A.root
p2
a.