(lp0
Vroot://cms-xrdr.private.lo:2094//xrd/store/data/Run2018D/SingleMuon/NANOAOD/Nano1June2019-v1/40000/274AB91A-472F-9D4F-8EB3-A19DF4AC83C5.root
p1
aVroot://cms-xrdr.private.lo:2094//xrd/store/data/Run2018D/SingleMuon/NANOAOD/Nano1June2019-v1/40000/282AF2B1-460B-6B44-B2D5-3F8BCBFD8A21.root
p2
a.