(lp0
Vroot://cms-xrdr.private.lo:2094//xrd/store/data/Run2018D/EGamma/NANOAOD/Nano1June2019-v1/70000/1A9F1476-DE14-B24C-B310-592418822AA5.root
p1
aVroot://cms-xrdr.private.lo:2094//xrd/store/data/Run2018D/EGamma/NANOAOD/Nano1June2019-v1/70000/1AC426F6-7280-7A42-95FE-6DB5D8AF7E58.root
p2
a.