(lp0
Vroot://cms-xrdr.private.lo:2094//xrd/store/data/Run2018D/EGamma/NANOAOD/Nano1June2019-v1/40000/2C278F74-4CF0-F244-8FD4-91F3E08EB527.root
p1
aVroot://cms-xrdr.private.lo:2094//xrd/store/data/Run2018D/EGamma/NANOAOD/Nano1June2019-v1/40000/2CC81E2F-CDDE-3F41-B504-48BD1DC7DC0B.root
p2
a.