(lp0
Vroot://cms-xrdr.private.lo:2094//xrd/store/data/Run2018A/EGamma/NANOAOD/Nano1June2019-v1/40000/3A1A0C46-5828-D541-A3F4-AB40219FECB6.root
p1
aVroot://cms-xrdr.private.lo:2094//xrd/store/data/Run2018A/EGamma/NANOAOD/Nano1June2019-v1/40000/3BD9B6E0-C813-7545-A64F-164413216B5B.root
p2
a.