(lp0
Vroot://cms-xrdr.private.lo:2094//xrd/store/data/Run2018D/EGamma/NANOAOD/Nano1June2019-v1/40000/6030B853-16BB-8941-9C6B-B6A9363A7791.root
p1
aVroot://cms-xrdr.private.lo:2094//xrd/store/data/Run2018D/EGamma/NANOAOD/Nano1June2019-v1/40000/611C2D37-A53D-C540-ACB5-FAD3405EE88B.root
p2
a.