(lp0
Vroot://cms-xrdr.private.lo:2094//xrd/store/data/Run2018A/SingleMuon/NANOAOD/Nano1June2019-v1/40000/8B6CA3CA-72EF-7144-9DEC-D1FCE8E7C414.root
p1
aVroot://cms-xrdr.private.lo:2094//xrd/store/data/Run2018A/SingleMuon/NANOAOD/Nano1June2019-v1/40000/8C59529A-DCE7-A84B-A467-5DEE80D80D1E.root
p2
a.