(lp0
Vroot://cms-xrdr.private.lo:2094//xrd/store/data/Run2018D/EGamma/NANOAOD/Nano1June2019-v1/70000/E8C89B06-1B2C-5748-81A2-B2C9D3CDD1BB.root
p1
aVroot://cms-xrdr.private.lo:2094//xrd/store/data/Run2018D/EGamma/NANOAOD/Nano1June2019-v1/70000/EC210D8F-328B-274C-9FA2-4D1FD2C715B3.root
p2
a.