(lp0
Vroot://cms-xrdr.private.lo:2094//xrd/store/data/Run2018D/SingleMuon/NANOAOD/Nano1June2019-v1/40000/965E1DCA-D2FD-844D-A46C-CBCF587A50A1.root
p1
aVroot://cms-xrdr.private.lo:2094//xrd/store/data/Run2018D/SingleMuon/NANOAOD/Nano1June2019-v1/40000/98CBE3D1-4761-F24E-8007-2B2777551D2B.root
p2
a.