(lp0
Vroot://cms-xrdr.private.lo:2094//xrd/store/data/Run2018D/EGamma/NANOAOD/Nano1June2019-v1/40000/415EFFE9-FB7E-2345-A3DF-E5DD4DFD6FC6.root
p1
aVroot://cms-xrdr.private.lo:2094//xrd/store/data/Run2018D/EGamma/NANOAOD/Nano1June2019-v1/40000/4211FEB0-3AD9-6C46-B881-1FC141555187.root
p2
a.