(lp0
Vroot://cms-xrdr.private.lo:2094//xrd/store/data/Run2018C/EGamma/NANOAOD/Nano1June2019-v1/230000/358954D6-5E0D-9642-BCCA-460D274A65C0.root
p1
aVroot://cms-xrdr.private.lo:2094//xrd/store/data/Run2018C/EGamma/NANOAOD/Nano1June2019-v1/230000/3675F67D-AA87-4C42-B757-7BCC1D8B9E46.root
p2
a.