(lp0
Vroot://cms-xrdr.private.lo:2094//xrd/store/data/Run2018B/SingleMuon/NANOAOD/Nano1June2019-v1/40000/E6F661F3-7E1C-BA48-8726-7E97C32BB11D.root
p1
aVroot://cms-xrdr.private.lo:2094//xrd/store/data/Run2018B/SingleMuon/NANOAOD/Nano1June2019-v1/40000/EAD19F22-21D7-6B4B-BF4F-4C7D522869A5.root
p2
a.