(lp0
Vroot://cms-xrdr.private.lo:2094//xrd/store/data/Run2018A/SingleMuon/NANOAOD/Nano1June2019-v1/40000/DCCD2FDD-8942-914F-8CFA-9EF950A2DA50.root
p1
aVroot://cms-xrdr.private.lo:2094//xrd/store/data/Run2018A/SingleMuon/NANOAOD/Nano1June2019-v1/40000/DDE9A5FE-1B47-4641-807C-AEDB1A6CA808.root
p2
a.