(lp0
Vroot://cms-xrdr.private.lo:2094//xrd/store/data/Run2018D/EGamma/NANOAOD/Nano1June2019-v1/40000/B20D5272-5267-7347-8208-7359CB84420A.root
p1
aVroot://cms-xrdr.private.lo:2094//xrd/store/data/Run2018D/EGamma/NANOAOD/Nano1June2019-v1/40000/B2EC2FCF-EEDA-4649-BAFA-DB25A5245A50.root
p2
a.