(lp0
Vroot://cms-xrdr.private.lo:2094//xrd/store/data/Run2018D/EGamma/NANOAOD/Nano1June2019-v1/40000/13DFB486-F661-FF43-AC34-70FB49BA3F35.root
p1
aVroot://cms-xrdr.private.lo:2094//xrd/store/data/Run2018D/EGamma/NANOAOD/Nano1June2019-v1/40000/13F6C7E5-F744-2441-ACF7-7062524E350B.root
p2
a.