(lp0
Vroot://cms-xrdr.private.lo:2094//xrd/store/data/Run2018D/EGamma/NANOAOD/Nano1June2019-v1/70000/D9F76FA8-2BEE-874A-969F-1D9B0217A177.root
p1
aVroot://cms-xrdr.private.lo:2094//xrd/store/data/Run2018D/EGamma/NANOAOD/Nano1June2019-v1/70000/DA059A7C-F512-7440-A3F1-3C7639CF6A79.root
p2
a.