(lp0
Vroot://cms-xrdr.private.lo:2094//xrd/store/data/Run2018A/SingleMuon/NANOAOD/Nano1June2019-v1/40000/38332ACD-0C5A-F94E-8EF9-6FCEC6F2CA7D.root
p1
aVroot://cms-xrdr.private.lo:2094//xrd/store/data/Run2018A/SingleMuon/NANOAOD/Nano1June2019-v1/40000/38A7BF2A-96CC-284A-A131-9D3D97833E5F.root
p2
a.