(lp0
Vroot://cms-xrdr.private.lo:2094//xrd/store/data/Run2018D/SingleMuon/NANOAOD/Nano1June2019-v1/30000/4D4D7E0D-520B-8241-801C-C830677A5666.root
p1
aVroot://cms-xrdr.private.lo:2094//xrd/store/data/Run2018D/SingleMuon/NANOAOD/Nano1June2019-v1/30000/4EFE3379-E68B-1F42-A62E-93FE613A09E7.root
p2
a.