(lp0
Vroot://cms-xrdr.private.lo:2094//xrd/store/data/Run2018D/SingleMuon/NANOAOD/Nano1June2019-v1/40000/9554692B-E8D0-9142-A355-4BA5CDD41EAA.root
p1
aVroot://cms-xrdr.private.lo:2094//xrd/store/data/Run2018D/SingleMuon/NANOAOD/Nano1June2019-v1/40000/9562691D-EFFE-A84B-9BF6-C17CBBB4D169.root
p2
a.