(lp0
Vroot://cms-xrdr.private.lo:2094//xrd/store/data/Run2018D/EGamma/NANOAOD/Nano1June2019-v1/40000/7EFA25B9-D3A1-AA49-8498-CFEC74014AA1.root
p1
aVroot://cms-xrdr.private.lo:2094//xrd/store/data/Run2018D/EGamma/NANOAOD/Nano1June2019-v1/40000/7F9D186F-79C8-644E-94F6-FB0C937E8BB1.root
p2
a.