(lp0
Vroot://cms-xrdr.private.lo:2094//xrd/store/data/Run2018A/EGamma/NANOAOD/Nano1June2019-v1/40000/7A328AD3-9C29-6644-A8DB-35A3B24310EA.root
p1
aVroot://cms-xrdr.private.lo:2094//xrd/store/data/Run2018A/EGamma/NANOAOD/Nano1June2019-v1/40000/7A3F93B8-AA42-3143-900E-9AAD731D46D7.root
p2
a.