(lp0
Vroot://cms-xrdr.private.lo:2094//xrd/store/data/Run2018A/SingleMuon/NANOAOD/Nano1June2019-v1/40000/AA6DC354-E5A1-DC41-BFD3-32AFFE2CD12E.root
p1
aVroot://cms-xrdr.private.lo:2094//xrd/store/data/Run2018A/SingleMuon/NANOAOD/Nano1June2019-v1/40000/ACDCBDF1-EC96-A641-A60C-3529C54155E4.root
p2
a.