(lp0
Vroot://cms-xrdr.private.lo:2094//xrd/store/data/Run2018D/EGamma/NANOAOD/Nano1June2019-v1/40000/0022B4EF-6123-DE4F-8C45-839AA2BD4E13.root
p1
aVroot://cms-xrdr.private.lo:2094//xrd/store/data/Run2018D/EGamma/NANOAOD/Nano1June2019-v1/40000/00C3E400-1FB1-E149-B935-C6B0867C59C8.root
p2
a.