(lp0
Vroot://cms-xrdr.private.lo:2094//xrd/store/data/Run2018D/EGamma/NANOAOD/Nano1June2019-v1/70000/9C34D41E-723F-7142-99D0-5F3BAF1C447E.root
p1
aVroot://cms-xrdr.private.lo:2094//xrd/store/data/Run2018D/EGamma/NANOAOD/Nano1June2019-v1/70000/9E91937E-1DE7-5149-93F7-9BA60F8EF663.root
p2
a.