(lp0
Vroot://cms-xrdr.private.lo:2094//xrd/store/data/Run2018D/EGamma/NANOAOD/Nano1June2019-v1/40000/5ADA9979-B375-514F-A0C9-EA3CB6E83A1F.root
p1
aVroot://cms-xrdr.private.lo:2094//xrd/store/data/Run2018D/EGamma/NANOAOD/Nano1June2019-v1/40000/5AE32FC4-311F-7B4E-B64B-EDA64537DD6D.root
p2
a.