(lp0
Vroot://cms-xrdr.private.lo:2094//xrd/store/data/Run2018B/SingleMuon/NANOAOD/Nano1June2019-v1/60000/86215F30-1B07-8D4F-8A2A-BC07A43EDC8F.root
p1
aVroot://cms-xrdr.private.lo:2094//xrd/store/data/Run2018B/SingleMuon/NANOAOD/Nano1June2019-v1/60000/8EBC4621-E27F-9C46-B504-DE049CA6D90C.root
p2
a.