(lp0
Vroot://cms-xrdr.private.lo:2094//xrd/store/data/Run2018D/EGamma/NANOAOD/Nano1June2019-v1/70000/D38CFC13-6518-234A-A423-958BC8A3CFAE.root
p1
aVroot://cms-xrdr.private.lo:2094//xrd/store/data/Run2018D/EGamma/NANOAOD/Nano1June2019-v1/70000/D8E62C76-0842-E247-B1FD-A9CA4B81DEE4.root
p2
a.