(lp0
Vroot://cms-xrdr.private.lo:2094//xrd/store/data/Run2018B/SingleMuon/NANOAOD/Nano1June2019-v1/40000/48E4EB8C-6803-5D46-B67F-9404DB4F6A0F.root
p1
aVroot://cms-xrdr.private.lo:2094//xrd/store/data/Run2018B/SingleMuon/NANOAOD/Nano1June2019-v1/40000/631FCE81-DA93-9341-B697-4AF48E4CF732.root
p2
a.