(lp0
Vroot://cms-xrdr.private.lo:2094//xrd/store/data/Run2018C/EGamma/NANOAOD/Nano1June2019-v1/240000/A196CA5F-54C9-2B41-A84E-1C4644C0C618.root
p1
aVroot://cms-xrdr.private.lo:2094//xrd/store/data/Run2018C/EGamma/NANOAOD/Nano1June2019-v1/240000/A621E891-2AEA-2C42-81D9-10A883C0E10D.root
p2
a.