(lp0
Vroot://cms-xrdr.private.lo:2094//xrd/store/data/Run2018D/MuonEG/NANOAOD/Nano1June2019_ver2-v1/30000/66DF659D-76E8-5B4C-858A-A094576F613B.root
p1
aVroot://cms-xrdr.private.lo:2094//xrd/store/data/Run2018D/MuonEG/NANOAOD/Nano1June2019_ver2-v1/30000/87FC4822-69BF-9047-8A8A-D53C9B372C00.root
p2
a.