(lp0
Vroot://cms-xrdr.private.lo:2094//xrd/store/data/Run2018D/EGamma/NANOAOD/Nano1June2019-v1/70000/E4BE0E80-4DA8-8547-B4D5-2521EBC66408.root
p1
aVroot://cms-xrdr.private.lo:2094//xrd/store/data/Run2018D/EGamma/NANOAOD/Nano1June2019-v1/70000/E8A38DAA-E578-904A-A01A-85986F16D79F.root
p2
a.