(lp0
Vroot://cms-xrdr.private.lo:2094//xrd/store/data/Run2018D/EGamma/NANOAOD/Nano1June2019-v1/70000/7E0958E0-D520-4146-BA49-DB237CADD0EB.root
p1
aVroot://cms-xrdr.private.lo:2094//xrd/store/data/Run2018D/EGamma/NANOAOD/Nano1June2019-v1/70000/7F0B0887-FEC8-BF4E-B4EC-99889D35F14B.root
p2
a.