(lp0
Vroot://cms-xrdr.private.lo:2094//xrd/store/data/Run2018A/SingleMuon/NANOAOD/Nano1June2019-v1/40000/0FB3951F-7334-4E41-BEB0-122D58BC38F7.root
p1
aVroot://cms-xrdr.private.lo:2094//xrd/store/data/Run2018A/SingleMuon/NANOAOD/Nano1June2019-v1/40000/1049A155-6B7D-AE48-9852-D84F814BCA59.root
p2
a.