(lp0
Vroot://cms-xrdr.private.lo:2094//xrd/store/data/Run2018A/SingleMuon/NANOAOD/Nano1June2019-v1/40000/9DAB95D2-4C73-B84E-BFC2-D3A392AA07CD.root
p1
aVroot://cms-xrdr.private.lo:2094//xrd/store/data/Run2018A/SingleMuon/NANOAOD/Nano1June2019-v1/40000/9F33182A-ED4D-E049-ABDB-21C24F320B96.root
p2
a.