(lp0
Vroot://cms-xrdr.private.lo:2094//xrd/store/data/Run2018D/SingleMuon/NANOAOD/Nano1June2019-v1/40000/15CE5DD3-D939-9849-9E9C-6F5F802AF3D3.root
p1
aVroot://cms-xrdr.private.lo:2094//xrd/store/data/Run2018D/SingleMuon/NANOAOD/Nano1June2019-v1/40000/16B9586E-B1DA-164F-B31E-164FC8195BDF.root
p2
a.