(lp0
Vroot://cms-xrdr.private.lo:2094//xrd/store/data/Run2018D/EGamma/NANOAOD/Nano1June2019-v1/40000/6151B0B6-A98C-E846-878D-24A642BAF552.root
p1
aVroot://cms-xrdr.private.lo:2094//xrd/store/data/Run2018D/EGamma/NANOAOD/Nano1June2019-v1/40000/61F581BF-8E55-FD49-A7BE-4B7ABC9F6286.root
p2
a.