(lp0
Vroot://cms-xrdr.private.lo:2094//xrd/store/data/Run2018A/DoubleMuon/NANOAOD/Nano1June2019-v1/60000/5F0BC565-ACCE-974F-8724-EEA9897A78D5.root
p1
aVroot://cms-xrdr.private.lo:2094//xrd/store/data/Run2018A/DoubleMuon/NANOAOD/Nano1June2019-v1/60000/69565467-3AD0-BE4C-9774-B17F3289B70A.root
p2
a.