(lp0
Vroot://cms-xrdr.private.lo:2094//xrd/store/data/Run2018C/EGamma/NANOAOD/Nano1June2019-v1/240000/33F25B07-B780-8F49-833D-1B3271E3E84E.root
p1
aVroot://cms-xrdr.private.lo:2094//xrd/store/data/Run2018C/EGamma/NANOAOD/Nano1June2019-v1/240000/4C921EE1-D633-B54A-AD9F-976CFD5F3C24.root
p2
a.