(lp0
Vroot://cms-xrdr.private.lo:2094//xrd/store/data/Run2018A/SingleMuon/NANOAOD/Nano1June2019-v1/40000/A03AAD0A-1B9F-334B-996A-EAC5DECC3C56.root
p1
aVroot://cms-xrdr.private.lo:2094//xrd/store/data/Run2018A/SingleMuon/NANOAOD/Nano1June2019-v1/40000/A1D7E09A-5527-034A-A400-4385ECC47F75.root
p2
a.