(lp0
Vroot://cms-xrdr.private.lo:2094//xrd/store/data/Run2018A/EGamma/NANOAOD/Nano1June2019-v1/40000/367B185A-7A8E-5B41-9568-2DB8ADE9F0D8.root
p1
aVroot://cms-xrdr.private.lo:2094//xrd/store/data/Run2018A/EGamma/NANOAOD/Nano1June2019-v1/40000/376F08AA-5528-8A4E-9F6B-CC2BAE73EA8C.root
p2
a.