(lp0
Vroot://cms-xrdr.private.lo:2094//xrd/store/data/Run2018D/EGamma/NANOAOD/Nano1June2019-v1/40000/6A0B9E46-5606-A243-AE58-F70A95988DC1.root
p1
aVroot://cms-xrdr.private.lo:2094//xrd/store/data/Run2018D/EGamma/NANOAOD/Nano1June2019-v1/40000/6AB0A8E8-A0E6-F748-B47F-41DD1A7C5C24.root
p2
a.