(lp0
Vroot://cms-xrdr.private.lo:2094//xrd/store/data/Run2018A/EGamma/NANOAOD/Nano1June2019-v1/40000/F0483D98-84FB-BE40-A0CC-0112374DE55E.root
p1
aVroot://cms-xrdr.private.lo:2094//xrd/store/data/Run2018A/EGamma/NANOAOD/Nano1June2019-v1/40000/F0729C82-70E4-834C-9B30-277AA92DECCF.root
p2
a.