(lp0
Vroot://cms-xrdr.private.lo:2094//xrd/store/data/Run2018C/EGamma/NANOAOD/Nano1June2019-v1/230000/7651995E-4DAE-4E42-BB89-5A723E01ECA5.root
p1
aVroot://cms-xrdr.private.lo:2094//xrd/store/data/Run2018C/EGamma/NANOAOD/Nano1June2019-v1/230000/77B1D6B0-11DB-7D4C-83D5-5CDD162BFE61.root
p2
a.