(lp0
Vroot://cms-xrdr.private.lo:2094//xrd/store/data/Run2018D/SingleMuon/NANOAOD/Nano1June2019-v1/40000/1180E6D3-A751-9241-B0E3-99E4E5A281A2.root
p1
aVroot://cms-xrdr.private.lo:2094//xrd/store/data/Run2018D/SingleMuon/NANOAOD/Nano1June2019-v1/40000/12774CC6-0F99-2149-BD95-08F3C0BE9F3F.root
p2
a.