(lp0
Vroot://cms-xrdr.private.lo:2094//xrd/store/data/Run2018A/EGamma/NANOAOD/Nano1June2019-v1/40000/4AE606DF-FDE0-FE42-95FA-8B54E5F10E71.root
p1
aVroot://cms-xrdr.private.lo:2094//xrd/store/data/Run2018A/EGamma/NANOAOD/Nano1June2019-v1/40000/4B30FB25-AF0B-D64E-8088-18DEDEB08A5E.root
p2
a.