(lp0
Vroot://cms-xrdr.private.lo:2094//xrd/store/data/Run2018D/EGamma/NANOAOD/Nano1June2019-v1/70000/EF8ACF39-AD03-E348-9BE6-4FA98121AE7C.root
p1
aVroot://cms-xrdr.private.lo:2094//xrd/store/data/Run2018D/EGamma/NANOAOD/Nano1June2019-v1/70000/F411F196-95C3-3244-AACB-91A2C947D7E4.root
p2
a.