(lp0
Vroot://cms-xrdr.private.lo:2094//xrd/store/data/Run2018A/EGamma/NANOAOD/Nano1June2019-v1/40000/43BAE1FD-2A76-6D49-9001-8E75011025D7.root
p1
aVroot://cms-xrdr.private.lo:2094//xrd/store/data/Run2018A/EGamma/NANOAOD/Nano1June2019-v1/40000/45AD6148-3EEB-2848-A0C8-433BE16E75ED.root
p2
a.