(lp0
Vroot://cms-xrdr.private.lo:2094//xrd/store/data/Run2018A/SingleMuon/NANOAOD/Nano1June2019-v1/40000/97B529EE-32E1-064F-9B9D-1930E8189746.root
p1
aVroot://cms-xrdr.private.lo:2094//xrd/store/data/Run2018A/SingleMuon/NANOAOD/Nano1June2019-v1/40000/98C756EA-E98B-5D48-9BC9-0D0F52281A9D.root
p2
a.