(lp0
Vroot://cms-xrdr.private.lo:2094//xrd/store/data/Run2018D/EGamma/NANOAOD/Nano1June2019-v1/70000/4DEA8FA4-669E-0D47-9D97-FB7F6BEAEE85.root
p1
aVroot://cms-xrdr.private.lo:2094//xrd/store/data/Run2018D/EGamma/NANOAOD/Nano1June2019-v1/70000/4DF593EA-E792-0642-AEAF-93A4D8EEE06A.root
p2
a.