(lp0
Vroot://cms-xrdr.private.lo:2094//xrd/store/data/Run2018D/EGamma/NANOAOD/Nano1June2019-v1/70000/A6B15DFB-3811-7548-9F9B-9A24E1E166A9.root
p1
aVroot://cms-xrdr.private.lo:2094//xrd/store/data/Run2018D/EGamma/NANOAOD/Nano1June2019-v1/70000/A8658D39-AE60-304E-8D59-0CE76662B99D.root
p2
a.