(lp0
Vroot://cms-xrdr.private.lo:2094//xrd/store/data/Run2018D/SingleMuon/NANOAOD/Nano1June2019-v1/40000/92E7EC1D-57A8-904B-BFAB-0A1CD560702C.root
p1
aVroot://cms-xrdr.private.lo:2094//xrd/store/data/Run2018D/SingleMuon/NANOAOD/Nano1June2019-v1/40000/93061C02-7665-D44A-8B98-87E3DEE8368C.root
p2
a.