(lp0
Vroot://cms-xrdr.private.lo:2094//xrd/store/data/Run2018D/EGamma/NANOAOD/Nano1June2019-v1/70000/DEE8C4CE-5C0F-4A43-8E7D-CFA253326649.root
p1
aVroot://cms-xrdr.private.lo:2094//xrd/store/data/Run2018D/EGamma/NANOAOD/Nano1June2019-v1/70000/E0FE775C-C0B0-2348-BA1F-427A9DC07776.root
p2
a.