(lp0
Vroot://cms-xrdr.private.lo:2094//xrd/store/data/Run2018C/EGamma/NANOAOD/Nano1June2019-v1/40000/7A1AC8FD-76C5-3C40-A78E-7FAB5722013F.root
p1
aVroot://cms-xrdr.private.lo:2094//xrd/store/data/Run2018C/EGamma/NANOAOD/Nano1June2019-v1/40000/7BAB98CA-57B0-8A43-8C29-64A41845CCE7.root
p2
a.