(lp0
Vroot://cms-xrdr.private.lo:2094//xrd/store/data/Run2018D/EGamma/NANOAOD/Nano1June2019-v1/70000/308485E4-9D86-CA4F-B00A-D0C55FCB2301.root
p1
aVroot://cms-xrdr.private.lo:2094//xrd/store/data/Run2018D/EGamma/NANOAOD/Nano1June2019-v1/70000/325C866B-EA08-0B46-8850-E0C87CE10706.root
p2
a.