(lp0
Vroot://cms-xrdr.private.lo:2094//xrd/store/data/Run2018D/EGamma/NANOAOD/Nano1June2019-v1/40000/8980CFF2-00A7-0549-B281-E333E60F9A36.root
p1
aVroot://cms-xrdr.private.lo:2094//xrd/store/data/Run2018D/EGamma/NANOAOD/Nano1June2019-v1/40000/89E6427C-3A75-454E-83E2-CF73CA80115A.root
p2
a.