(lp0
Vroot://cms-xrdr.private.lo:2094//xrd/store/data/Run2018A/MuonEG/NANOAOD/Nano1June2019-v1/40000/7F629FBA-2EB5-CE45-9114-43082EAC02BD.root
p1
aVroot://cms-xrdr.private.lo:2094//xrd/store/data/Run2018A/MuonEG/NANOAOD/Nano1June2019-v1/40000/80D9D51F-11C6-3142-9AAA-82EE0DF1B94B.root
p2
a.