(lp0
Vroot://cms-xrdr.private.lo:2094//xrd/store/data/Run2018D/EGamma/NANOAOD/Nano1June2019-v1/40000/5C333C72-C353-1F43-AF12-B25EB9A9E93E.root
p1
aVroot://cms-xrdr.private.lo:2094//xrd/store/data/Run2018D/EGamma/NANOAOD/Nano1June2019-v1/40000/5D18B862-3D50-F64C-BE25-C516535267BB.root
p2
a.