(lp0
Vroot://cms-xrdr.private.lo:2094//xrd/store/data/Run2018D/EGamma/NANOAOD/Nano1June2019-v1/40000/31BC6D37-31B9-A64E-8BC4-986EAB8BD4DB.root
p1
aVroot://cms-xrdr.private.lo:2094//xrd/store/data/Run2018D/EGamma/NANOAOD/Nano1June2019-v1/40000/338071BB-DD52-5A47-993D-3A52B460941E.root
p2
a.