(lp0
Vroot://cms-xrdr.private.lo:2094//xrd/store/data/Run2018D/DoubleMuon/NANOAOD/Nano1June2019_ver2-v1/30000/777CA9A7-9C1D-524A-A967-D59795A9D75F.root
p1
aVroot://cms-xrdr.private.lo:2094//xrd/store/data/Run2018D/DoubleMuon/NANOAOD/Nano1June2019_ver2-v1/30000/9E25A17A-5D54-FE42-AC54-50EDE8EFE068.root
p2
a.