(lp0
Vroot://cms-xrdr.private.lo:2094//xrd/store/data/Run2018D/EGamma/NANOAOD/Nano1June2019-v1/70000/9475AECB-BC05-2449-9967-DDF8DC51C16F.root
p1
aVroot://cms-xrdr.private.lo:2094//xrd/store/data/Run2018D/EGamma/NANOAOD/Nano1June2019-v1/70000/98FBB8E0-D83A-F448-B918-4F39F43EBD5A.root
p2
a.