(lp0
Vroot://cms-xrdr.private.lo:2094//xrd/store/data/Run2018B/EGamma/NANOAOD/Nano1June2019-v1/40000/28D580F4-EF4A-8A49-93F2-CC9E8085AB43.root
p1
aVroot://cms-xrdr.private.lo:2094//xrd/store/data/Run2018B/EGamma/NANOAOD/Nano1June2019-v1/40000/299516D6-8D79-F542-B7F6-C7C041A2E1D0.root
p2
a.