(lp0
Vroot://cms-xrdr.private.lo:2094//xrd/store/data/Run2018D/DoubleMuon/NANOAOD/Nano1June2019_ver2-v1/30000/09EB7D9A-8D7F-5245-969F-83D3D69A3863.root
p1
aVroot://cms-xrdr.private.lo:2094//xrd/store/data/Run2018D/DoubleMuon/NANOAOD/Nano1June2019_ver2-v1/30000/0C0083E2-076B-3346-B27E-D7CC7F118969.root
p2
a.