(lp0
Vroot://cms-xrdr.private.lo:2094//xrd/store/data/Run2018A/EGamma/NANOAOD/Nano1June2019-v1/40000/83CED06C-FFF7-5E4D-9251-0E0C698D1B56.root
p1
aVroot://cms-xrdr.private.lo:2094//xrd/store/data/Run2018A/EGamma/NANOAOD/Nano1June2019-v1/40000/852D07D5-16EB-A745-BF9D-6A657B2805EB.root
p2
a.