(lp0
Vroot://cms-xrdr.private.lo:2094//xrd/store/data/Run2018D/EGamma/NANOAOD/Nano1June2019-v1/70000/13E9C22E-6220-584C-B17E-A0EEDC594BE0.root
p1
aVroot://cms-xrdr.private.lo:2094//xrd/store/data/Run2018D/EGamma/NANOAOD/Nano1June2019-v1/70000/13F5EB40-50AB-F54C-8843-0373C18E3528.root
p2
a.