(lp0
Vroot://cms-xrdr.private.lo:2094//xrd/store/data/Run2018C/EGamma/NANOAOD/Nano1June2019-v1/240000/728F079F-6718-A34C-AB6C-BE1AF3D16D38.root
p1
aVroot://cms-xrdr.private.lo:2094//xrd/store/data/Run2018C/EGamma/NANOAOD/Nano1June2019-v1/240000/82744DA2-5FC1-FD43-990E-2186CA6DDA40.root
p2
a.