(lp0
Vroot://cms-xrdr.private.lo:2094//xrd/store/data/Run2018B/EGamma/NANOAOD/Nano1June2019-v1/40000/73FB5676-BFB7-6A4E-90D1-C9A99EC510E6.root
p1
aVroot://cms-xrdr.private.lo:2094//xrd/store/data/Run2018B/EGamma/NANOAOD/Nano1June2019-v1/40000/75FEE3BF-BE8C-4941-B90C-61E476BC5B6E.root
p2
a.