(lp0
Vroot://cms-xrdr.private.lo:2094//xrd/store/data/Run2018D/EGamma/NANOAOD/Nano1June2019-v1/70000/7C17B237-EF04-C549-99FE-493F595E3AC6.root
p1
aVroot://cms-xrdr.private.lo:2094//xrd/store/data/Run2018D/EGamma/NANOAOD/Nano1June2019-v1/70000/7D7FCED0-80B8-8944-B5F7-F7F8EB45202C.root
p2
a.