(lp0
Vroot://cms-xrdr.private.lo:2094//xrd/store/data/Run2018A/EGamma/NANOAOD/Nano1June2019-v1/40000/41E04599-836C-7A4A-94A0-5ABEDAB135A9.root
p1
aVroot://cms-xrdr.private.lo:2094//xrd/store/data/Run2018A/EGamma/NANOAOD/Nano1June2019-v1/40000/42AF5824-F524-CA42-963F-7FDE66A65B44.root
p2
a.