(lp0
Vroot://cms-xrdr.private.lo:2094//xrd/store/data/Run2018C/SingleMuon/NANOAOD/Nano1June2019-v1/40000/699ABD06-E4F6-AD48-9E30-73D9F6CDA916.root
p1
aVroot://cms-xrdr.private.lo:2094//xrd/store/data/Run2018C/SingleMuon/NANOAOD/Nano1June2019-v1/40000/71D00A0F-1BC0-6A4C-A0F4-0C4BFE0D2D41.root
p2
a.