(lp0
Vroot://cms-xrdr.private.lo:2094//xrd/store/data/Run2018A/EGamma/NANOAOD/Nano1June2019-v1/40000/D5C71FE6-C7CA-7C46-A5F9-B7B2B0D84ECB.root
p1
aVroot://cms-xrdr.private.lo:2094//xrd/store/data/Run2018A/EGamma/NANOAOD/Nano1June2019-v1/40000/D6E24CA7-1202-1D4C-AAF5-ABE254CB8FBF.root
p2
a.