(lp0
Vroot://cms-xrdr.private.lo:2094//xrd/store/data/Run2018A/SingleMuon/NANOAOD/Nano1June2019-v1/40000/23B9D0D2-DDE8-4F4C-B90D-13F13E481164.root
p1
aVroot://cms-xrdr.private.lo:2094//xrd/store/data/Run2018A/SingleMuon/NANOAOD/Nano1June2019-v1/40000/26755FCC-4A63-AD42-B23E-6FAB3033BFA0.root
p2
a.