(lp0
Vroot://cms-xrdr.private.lo:2094//xrd/store/data/Run2018C/SingleMuon/NANOAOD/Nano1June2019-v1/40000/8980B8F8-87B9-8F46-822C-A7A53CB8AF80.root
p1
aVroot://cms-xrdr.private.lo:2094//xrd/store/data/Run2018C/SingleMuon/NANOAOD/Nano1June2019-v1/40000/8A21042B-E433-4A4B-A392-9037D3EA7A58.root
p2
a.