(lp0
Vroot://cms-xrdr.private.lo:2094//xrd/store/data/Run2018C/DoubleMuon/NANOAOD/Nano1June2019-v1/40000/40CCEE76-18FB-2441-9822-CE749CCB1661.root
p1
aVroot://cms-xrdr.private.lo:2094//xrd/store/data/Run2018C/DoubleMuon/NANOAOD/Nano1June2019-v1/40000/4B347A5B-A7C2-634A-90B6-331E96D7D8F6.root
p2
a.