(lp0
Vroot://cms-xrdr.private.lo:2094//xrd/store/data/Run2018D/EGamma/NANOAOD/Nano1June2019-v1/40000/6ECF42B5-F038-8B41-BBB7-4BAD4F86D0D0.root
p1
aVroot://cms-xrdr.private.lo:2094//xrd/store/data/Run2018D/EGamma/NANOAOD/Nano1June2019-v1/40000/6F4F77E2-EF0D-0F47-902F-253A8994B34E.root
p2
a.