(lp0
Vroot://cms-xrdr.private.lo:2094//xrd/store/data/Run2018D/EGamma/NANOAOD/Nano1June2019-v1/40000/897AC918-2CD5-DF4A-B5D6-41D9125152C0.root
p1
aVroot://cms-xrdr.private.lo:2094//xrd/store/data/Run2018D/EGamma/NANOAOD/Nano1June2019-v1/40000/897D7DE0-2DD8-0C46-BDAA-C6555FD0AB67.root
p2
a.