(lp0
Vroot://cms-xrdr.private.lo:2094//xrd/store/data/Run2018C/MuonEG/NANOAOD/Nano1June2019-v1/60000/7F7BA912-A166-D54E-8635-BD77C41373EF.root
p1
aVroot://cms-xrdr.private.lo:2094//xrd/store/data/Run2018C/MuonEG/NANOAOD/Nano1June2019-v1/60000/94ADC445-9CE4-564D-AE4E-A9B5FDAC6519.root
p2
a.