(lp0
Vroot://cms-xrdr.private.lo:2094//xrd/store/data/Run2018B/DoubleMuon/NANOAOD/Nano1June2019-v1/40000/8507A179-B780-CC4C-8DF1-7A4FDF167DED.root
p1
aVroot://cms-xrdr.private.lo:2094//xrd/store/data/Run2018B/DoubleMuon/NANOAOD/Nano1June2019-v1/40000/851B4883-B453-F148-8EF9-B711D00B3AF2.root
p2
a.