(lp0
Vroot://cms-xrdr.private.lo:2094//xrd/store/data/Run2018C/DoubleMuon/NANOAOD/Nano1June2019-v1/40000/5048DAEB-D4A7-E94E-B708-9B147351159C.root
p1
aVroot://cms-xrdr.private.lo:2094//xrd/store/data/Run2018C/DoubleMuon/NANOAOD/Nano1June2019-v1/40000/51BF4CE8-8B89-CC49-B8F6-DEFB81054707.root
p2
a.