(lp0
Vroot://cms-xrdr.private.lo:2094//xrd/store/data/Run2018D/EGamma/NANOAOD/Nano1June2019-v1/40000/7B7ADE25-462A-664F-B8E5-B6F2BEE496D9.root
p1
aVroot://cms-xrdr.private.lo:2094//xrd/store/data/Run2018D/EGamma/NANOAOD/Nano1June2019-v1/40000/7E7F68C1-D017-D749-A800-964B5DCE2D14.root
p2
a.