(lp0
Vroot://cms-xrdr.private.lo:2094//xrd/store/data/Run2018D/EGamma/NANOAOD/Nano1June2019-v1/70000/B66A443E-B7BF-B846-A117-D131376E2D46.root
p1
aVroot://cms-xrdr.private.lo:2094//xrd/store/data/Run2018D/EGamma/NANOAOD/Nano1June2019-v1/70000/B996F8D3-56B3-9E49-B407-5F6CD976D435.root
p2
a.