(lp0
Vroot://cms-xrdr.private.lo:2094//xrd/store/data/Run2018B/SingleMuon/NANOAOD/Nano1June2019-v1/40000/26D2E863-A6F0-034D-B5DA-1A58B32917C1.root
p1
aVroot://cms-xrdr.private.lo:2094//xrd/store/data/Run2018B/SingleMuon/NANOAOD/Nano1June2019-v1/40000/2A37E5F5-0296-6744-8BB2-694AE0FF044D.root
p2
a.