(lp0
Vroot://cms-xrdr.private.lo:2094//xrd/store/data/Run2018D/EGamma/NANOAOD/Nano1June2019-v1/40000/B1B2D017-5B58-234D-A538-8660A1A1F967.root
p1
aVroot://cms-xrdr.private.lo:2094//xrd/store/data/Run2018D/EGamma/NANOAOD/Nano1June2019-v1/40000/B1BA9C4D-9568-1346-B76D-51176B63A894.root
p2
a.