(lp0
Vroot://cms-xrdr.private.lo:2094//xrd/store/data/Run2018D/SingleMuon/NANOAOD/Nano1June2019-v1/30000/E3E7CC0E-DC76-C043-A56C-ED9FA66AE759.root
p1
aVroot://cms-xrdr.private.lo:2094//xrd/store/data/Run2018D/SingleMuon/NANOAOD/Nano1June2019-v1/30000/E4E2288D-2425-3F48-9E1F-E9649CCC5FEB.root
p2
a.