(lp0
Vroot://cms-xrdr.private.lo:2094//xrd/store/data/Run2018D/EGamma/NANOAOD/Nano1June2019-v1/70000/6155AFB2-5AA5-2A4D-9409-A20AECDF9A30.root
p1
aVroot://cms-xrdr.private.lo:2094//xrd/store/data/Run2018D/EGamma/NANOAOD/Nano1June2019-v1/70000/617ED7AC-77D3-4F4A-A2D1-FB614C83A6AB.root
p2
a.