(lp0
Vroot://cms-xrdr.private.lo:2094//xrd/store/data/Run2018D/MuonEG/NANOAOD/Nano1June2019_ver2-v1/40000/42E808C0-A753-7B45-889A-6B6D254744DE.root
p1
aVroot://cms-xrdr.private.lo:2094//xrd/store/data/Run2018D/MuonEG/NANOAOD/Nano1June2019_ver2-v1/40000/A0D8BC75-8FB6-A343-A2ED-8496A6CA1192.root
p2
a.