(lp0
Vroot://cms-xrdr.private.lo:2094//xrd/store/data/Run2018A/DoubleMuon/NANOAOD/Nano1June2019-v1/60000/DC5CFD1F-40E0-8B4D-8516-3C6C86F57CF3.root
p1
aVroot://cms-xrdr.private.lo:2094//xrd/store/data/Run2018A/DoubleMuon/NANOAOD/Nano1June2019-v1/60000/E806BDF3-AFDC-1842-8E83-7861F6BEFC47.root
p2
a.