(lp0
Vroot://cms-xrdr.private.lo:2094//xrd/store/data/Run2018D/EGamma/NANOAOD/Nano1June2019-v1/70000/AE0C80EC-48C0-0747-9A3B-872CC68BA18F.root
p1
aVroot://cms-xrdr.private.lo:2094//xrd/store/data/Run2018D/EGamma/NANOAOD/Nano1June2019-v1/70000/B0EC631E-5674-7A45-B08C-6EDB35C507B6.root
p2
a.