(lp0
Vroot://cms-xrdr.private.lo:2094//xrd/store/data/Run2018B/EGamma/NANOAOD/Nano1June2019-v1/40000/6C0B6CBE-940F-8048-8856-4AEC0D27B596.root
p1
aVroot://cms-xrdr.private.lo:2094//xrd/store/data/Run2018B/EGamma/NANOAOD/Nano1June2019-v1/40000/6E728A56-CFFB-AC4D-8B65-AEAC6050E761.root
p2
a.