(lp0
Vroot://cms-xrdr.private.lo:2094//xrd/store/data/Run2018D/SingleMuon/NANOAOD/Nano1June2019-v1/40000/44CBF0B9-7376-9C46-908B-C9BE198D2755.root
p1
aVroot://cms-xrdr.private.lo:2094//xrd/store/data/Run2018D/SingleMuon/NANOAOD/Nano1June2019-v1/40000/467FCE10-5276-4044-8E77-644DC61ABDA7.root
p2
a.