(lp0
Vroot://cms-xrdr.private.lo:2094//xrd/store/data/Run2018D/EGamma/NANOAOD/Nano1June2019-v1/40000/1B2AB5E6-1EF4-F340-A011-7E4F3A9F0D56.root
p1
aVroot://cms-xrdr.private.lo:2094//xrd/store/data/Run2018D/EGamma/NANOAOD/Nano1June2019-v1/40000/1DDD183A-00FF-364F-ACD4-FCE0C255CC0A.root
p2
a.