(lp0
Vroot://cms-xrdr.private.lo:2094//xrd/store/data/Run2018A/DoubleMuon/NANOAOD/Nano1June2019-v1/60000/D21A720F-2CB4-894A-A5A5-89A5B5A73B85.root
p1
aVroot://cms-xrdr.private.lo:2094//xrd/store/data/Run2018A/DoubleMuon/NANOAOD/Nano1June2019-v1/60000/D9D24770-F271-644D-B269-317D9FDA78E1.root
p2
a.