(lp0
Vroot://cms-xrdr.private.lo:2094//xrd/store/data/Run2018D/EGamma/NANOAOD/Nano1June2019-v1/70000/C9DDF25E-B2C1-1A42-AEA7-B3378418AEFC.root
p1
aVroot://cms-xrdr.private.lo:2094//xrd/store/data/Run2018D/EGamma/NANOAOD/Nano1June2019-v1/70000/CCF9801A-54FA-4945-9E44-7AE6C76E6A0E.root
p2
a.