(lp0
Vroot://cms-xrdr.private.lo:2094//xrd/store/data/Run2018C/EGamma/NANOAOD/Nano1June2019-v1/230000/D2E4EBA8-2C2C-4749-9E94-BD1B7C3D8A09.root
p1
aVroot://cms-xrdr.private.lo:2094//xrd/store/data/Run2018C/EGamma/NANOAOD/Nano1June2019-v1/230000/D6948BD2-EE54-7F42-86F2-71E513657715.root
p2
a.