(lp0
Vroot://cms-xrdr.private.lo:2094//xrd/store/data/Run2018A/MuonEG/NANOAOD/Nano1June2019-v1/40000/2B4A1995-1924-DF4D-BEFF-78E673C8DE8A.root
p1
aVroot://cms-xrdr.private.lo:2094//xrd/store/data/Run2018A/MuonEG/NANOAOD/Nano1June2019-v1/40000/38F55E1C-6C92-6041-8C3A-B30B7C184C8C.root
p2
a.