(lp0
Vroot://cms-xrdr.private.lo:2094//xrd/store/data/Run2018B/SingleMuon/NANOAOD/Nano1June2019-v1/60000/3D800029-6A94-A94F-AEEC-C29B98BDC8FD.root
p1
aVroot://cms-xrdr.private.lo:2094//xrd/store/data/Run2018B/SingleMuon/NANOAOD/Nano1June2019-v1/60000/4BDC5FDC-379D-0C45-B5BF-F9103B4E3F08.root
p2
a.