(lp0
Vroot://cms-xrdr.private.lo:2094//xrd/store/data/Run2018C/EGamma/NANOAOD/Nano1June2019-v1/240000/C73AED9D-6A7C-894A-8899-5FF23383233F.root
p1
aVroot://cms-xrdr.private.lo:2094//xrd/store/data/Run2018C/EGamma/NANOAOD/Nano1June2019-v1/240000/CD17C515-337A-0C45-881B-13062AE6D829.root
p2
a.