(lp0
Vroot://cms-xrdr.private.lo:2094//xrd/store/data/Run2018A/SingleMuon/NANOAOD/Nano1June2019-v1/40000/81F0CFBB-3C9A-A340-8975-53ACC0742D73.root
p1
aVroot://cms-xrdr.private.lo:2094//xrd/store/data/Run2018A/SingleMuon/NANOAOD/Nano1June2019-v1/40000/83998CA9-7DC6-8949-B2D4-87A3E2D10CB4.root
p2
a.