(lp0
Vroot://cms-xrdr.private.lo:2094//xrd/store/data/Run2018D/EGamma/NANOAOD/Nano1June2019-v1/40000/7658F882-0014-B344-B0DD-6F9FB6B7CBD6.root
p1
aVroot://cms-xrdr.private.lo:2094//xrd/store/data/Run2018D/EGamma/NANOAOD/Nano1June2019-v1/40000/76903D82-8043-ED40-B0E1-0476A2CE1B9B.root
p2
a.