(lp0
Vroot://cms-xrdr.private.lo:2094//xrd/store/data/Run2018C/SingleMuon/NANOAOD/Nano1June2019-v1/70000/147500C5-A485-FF46-BDFA-FAC0BF5AAD67.root
p1
aVroot://cms-xrdr.private.lo:2094//xrd/store/data/Run2018C/SingleMuon/NANOAOD/Nano1June2019-v1/70000/192F6A6E-EA7A-E84C-B2BD-8AED906A1EEA.root
p2
a.