(lp0
Vroot://cms-xrdr.private.lo:2094//xrd/store/data/Run2018A/SingleMuon/NANOAOD/Nano1June2019-v1/40000/6848ADF0-A9B4-5042-8B22-FA015C1022A1.root
p1
aVroot://cms-xrdr.private.lo:2094//xrd/store/data/Run2018A/SingleMuon/NANOAOD/Nano1June2019-v1/40000/69A8AC93-766D-E945-AAAB-47F4A1823D51.root
p2
a.