(lp0
Vroot://cms-xrdr.private.lo:2094//xrd/store/data/Run2018D/EGamma/NANOAOD/Nano1June2019-v1/40000/A831D3FE-F0B4-0A4B-AD67-6AE2FA8ACF5E.root
p1
aVroot://cms-xrdr.private.lo:2094//xrd/store/data/Run2018D/EGamma/NANOAOD/Nano1June2019-v1/40000/A9E8A01D-95DB-554F-BFC2-FCBB06C75E39.root
p2
a.