(lp0
Vroot://cms-xrdr.private.lo:2094//xrd/store/data/Run2018D/SingleMuon/NANOAOD/Nano1June2019-v1/40000/47E90346-82D8-434B-8F69-13A0FF9AA1EA.root
p1
aVroot://cms-xrdr.private.lo:2094//xrd/store/data/Run2018D/SingleMuon/NANOAOD/Nano1June2019-v1/40000/48484D2B-E885-8944-A94D-B4849ADF7BE9.root
p2
a.