(lp0
Vroot://cms-xrdr.private.lo:2094//xrd/store/data/Run2018A/SingleMuon/NANOAOD/Nano1June2019-v1/40000/7089BA7A-7322-D049-93E4-5DFECEE676B1.root
p1
aVroot://cms-xrdr.private.lo:2094//xrd/store/data/Run2018A/SingleMuon/NANOAOD/Nano1June2019-v1/40000/74C4C6F0-94D4-0B4C-BFD4-A0D833F7EF93.root
p2
a.