(lp0
Vroot://cms-xrdr.private.lo:2094//xrd/store/data/Run2018C/EGamma/NANOAOD/Nano1June2019-v1/230000/B5CAA0D8-1BB2-7C4E-A59F-CAB430F9ECB0.root
p1
aVroot://cms-xrdr.private.lo:2094//xrd/store/data/Run2018C/EGamma/NANOAOD/Nano1June2019-v1/230000/BC61693C-069A-874A-A8D2-9AC30D653881.root
p2
a.