(lp0
Vroot://cms-xrdr.private.lo:2094//xrd/store/data/Run2018C/SingleMuon/NANOAOD/Nano1June2019-v1/70000/1A78D8F8-68B3-6044-A0EF-5BC0344FAF07.root
p1
aVroot://cms-xrdr.private.lo:2094//xrd/store/data/Run2018C/SingleMuon/NANOAOD/Nano1June2019-v1/70000/1AAC3ACE-550A-4B48-A392-78CA68CAEDA3.root
p2
a.