(lp0
Vroot://cms-xrdr.private.lo:2094//xrd/store/data/Run2018A/SingleMuon/NANOAOD/Nano1June2019-v1/40000/1CAAA6FA-6223-AA47-99CD-43EA2259097B.root
p1
aVroot://cms-xrdr.private.lo:2094//xrd/store/data/Run2018A/SingleMuon/NANOAOD/Nano1June2019-v1/40000/1CE04698-BFF6-664D-BEF4-385EAC8BD591.root
p2
a.