(lp0
Vroot://cms-xrdr.private.lo:2094//xrd/store/data/Run2018D/EGamma/NANOAOD/Nano1June2019-v1/70000/7F5447AF-997D-5946-8345-AD6C3C0D51A9.root
p1
aVroot://cms-xrdr.private.lo:2094//xrd/store/data/Run2018D/EGamma/NANOAOD/Nano1June2019-v1/70000/81B28AE7-C5F0-2540-A339-46026A358523.root
p2
a.