(lp0
Vroot://cms-xrdr.private.lo:2094//xrd/store/data/Run2018D/SingleMuon/NANOAOD/Nano1June2019-v1/40000/5057990B-8150-DC44-AD08-7BD5DF13CBC7.root
p1
aVroot://cms-xrdr.private.lo:2094//xrd/store/data/Run2018D/SingleMuon/NANOAOD/Nano1June2019-v1/40000/5513EE9C-74DB-3841-80C1-D7DC35C7E0D9.root
p2
a.