(lp0
Vroot://cms-xrdr.private.lo:2094//xrd/store/data/Run2018D/DoubleMuon/NANOAOD/Nano1June2019_ver2-v1/40000/4AD4407F-DCE6-5648-96DC-625E3FCA2596.root
p1
aVroot://cms-xrdr.private.lo:2094//xrd/store/data/Run2018D/DoubleMuon/NANOAOD/Nano1June2019_ver2-v1/40000/4C52656E-DEA9-B140-A136-FDC0EF754E29.root
p2
a.