(lp0
Vroot://cms-xrdr.private.lo:2094//xrd/store/data/Run2018D/SingleMuon/NANOAOD/Nano1June2019-v1/30000/B8C5A8C1-9857-974B-89D3-011F7C5DB283.root
p1
aVroot://cms-xrdr.private.lo:2094//xrd/store/data/Run2018D/SingleMuon/NANOAOD/Nano1June2019-v1/30000/BDA9B40A-2E40-C547-904C-5C6E37B91215.root
p2
a.