(lp0
Vroot://cms-xrdr.private.lo:2094//xrd/store/data/Run2018D/EGamma/NANOAOD/Nano1June2019-v1/40000/5A8D1776-2155-EC43-BC19-F51CFD8BD9B1.root
p1
aVroot://cms-xrdr.private.lo:2094//xrd/store/data/Run2018D/EGamma/NANOAOD/Nano1June2019-v1/40000/5ACEED42-FBA6-B447-89A6-151E6A6ED147.root
p2
a.