(lp0
Vroot://cms-xrdr.private.lo:2094//xrd/store/data/Run2018C/EGamma/NANOAOD/Nano1June2019-v1/230000/AB89C588-F994-2742-BA27-A36F5BDCBFC5.root
p1
aVroot://cms-xrdr.private.lo:2094//xrd/store/data/Run2018C/EGamma/NANOAOD/Nano1June2019-v1/230000/AFAE7744-DC51-6245-8C9F-D433108E04DF.root
p2
a.