(lp0
Vroot://cms-xrdr.private.lo:2094//xrd/store/data/Run2018B/EGamma/NANOAOD/Nano1June2019-v1/40000/EDBBD995-D385-554B-A2FC-5E9D7B80385A.root
p1
aVroot://cms-xrdr.private.lo:2094//xrd/store/data/Run2018B/EGamma/NANOAOD/Nano1June2019-v1/40000/EEADC0A1-37D7-F943-AF67-B3709A5636C7.root
p2
a.