(lp0
Vroot://cms-xrdr.private.lo:2094//xrd/store/data/Run2018A/EGamma/NANOAOD/Nano1June2019-v1/40000/A3DA3127-947A-364A-8028-84E7B9C6DAEE.root
p1
aVroot://cms-xrdr.private.lo:2094//xrd/store/data/Run2018A/EGamma/NANOAOD/Nano1June2019-v1/40000/A49771D0-3D5C-1444-8EA3-DBAB4B80028D.root
p2
a.