(lp0
Vroot://cms-xrdr.private.lo:2094//xrd/store/data/Run2018D/EGamma/NANOAOD/Nano1June2019-v1/40000/5A15AA29-ECFD-1849-9FDE-687A3817155F.root
p1
aVroot://cms-xrdr.private.lo:2094//xrd/store/data/Run2018D/EGamma/NANOAOD/Nano1June2019-v1/40000/5A2AB4A9-5EB8-AC45-A18A-F4EC1C889ECA.root
p2
a.