(lp0
Vroot://cms-xrdr.private.lo:2094//xrd/store/data/Run2018A/SingleMuon/NANOAOD/Nano1June2019-v1/40000/6D3D14E2-03A0-6845-8F68-2605EB1B2112.root
p1
aVroot://cms-xrdr.private.lo:2094//xrd/store/data/Run2018A/SingleMuon/NANOAOD/Nano1June2019-v1/40000/6DC57CAC-16EE-9B4B-BFD0-25E28A70D3ED.root
p2
a.