(lp0
Vroot://cms-xrdr.private.lo:2094//xrd/store/data/Run2018D/EGamma/NANOAOD/Nano1June2019-v1/40000/A47E15FB-59F8-4041-AC0A-EC8831284517.root
p1
aVroot://cms-xrdr.private.lo:2094//xrd/store/data/Run2018D/EGamma/NANOAOD/Nano1June2019-v1/40000/A595D7FF-98B8-0649-93E2-B5B62986F066.root
p2
a.