(lp0
Vroot://cms-xrdr.private.lo:2094//xrd/store/data/Run2018C/SingleMuon/NANOAOD/Nano1June2019-v1/40000/87C5C9D1-3268-3243-B988-DC525A742134.root
p1
aVroot://cms-xrdr.private.lo:2094//xrd/store/data/Run2018C/SingleMuon/NANOAOD/Nano1June2019-v1/40000/88774596-CED0-154E-8F34-986213088236.root
p2
a.