(lp0
Vroot://cms-xrdr.private.lo:2094//xrd/store/data/Run2018C/DoubleMuon/NANOAOD/Nano1June2019-v1/40000/01103974-71D3-084A-84EA-EB007A0E08FD.root
p1
aVroot://cms-xrdr.private.lo:2094//xrd/store/data/Run2018C/DoubleMuon/NANOAOD/Nano1June2019-v1/40000/08945348-660E-D14A-8BD8-E94804520C84.root
p2
a.