(lp0
Vroot://cms-xrdr.private.lo:2094//xrd/store/data/Run2018A/SingleMuon/NANOAOD/Nano1June2019-v1/30000/8385F5BF-06C6-DC4B-ABF0-DF71CE8503F4.root
p1
aVroot://cms-xrdr.private.lo:2094//xrd/store/data/Run2018A/SingleMuon/NANOAOD/Nano1June2019-v1/30000/840EE471-962B-2D42-A3EF-29A83523C21A.root
p2
a.