(lp0
Vroot://cms-xrdr.private.lo:2094//xrd/store/data/Run2018A/SingleMuon/NANOAOD/Nano1June2019-v1/40000/7A5F7E3C-FE91-6C45-9746-D8E99082729B.root
p1
aVroot://cms-xrdr.private.lo:2094//xrd/store/data/Run2018A/SingleMuon/NANOAOD/Nano1June2019-v1/40000/7BAF143E-517F-4248-BD14-D606DD4D52D5.root
p2
a.