(lp0
Vroot://cms-xrdr.private.lo:2094//xrd/store/data/Run2018D/EGamma/NANOAOD/Nano1June2019-v1/70000/BC74F03D-8245-C345-9754-34B7F8672C7D.root
p1
aVroot://cms-xrdr.private.lo:2094//xrd/store/data/Run2018D/EGamma/NANOAOD/Nano1June2019-v1/70000/BD668F5E-AF65-2B4D-93EA-9C738AAF9328.root
p2
a.