(lp0
Vroot://cms-xrdr.private.lo:2094//xrd/store/data/Run2018A/SingleMuon/NANOAOD/Nano1June2019-v1/40000/A68E7406-39FC-CC4C-ABF1-153A911C4F7E.root
p1
aVroot://cms-xrdr.private.lo:2094//xrd/store/data/Run2018A/SingleMuon/NANOAOD/Nano1June2019-v1/40000/A6F299D6-5601-0F46-811C-F4AD5AEDEED6.root
p2
a.