(lp0
Vroot://cms-xrdr.private.lo:2094//xrd/store/data/Run2018B/EGamma/NANOAOD/Nano1June2019-v1/40000/40F74B6E-A354-A74D-96B3-7F7E2F9A36FD.root
p1
aVroot://cms-xrdr.private.lo:2094//xrd/store/data/Run2018B/EGamma/NANOAOD/Nano1June2019-v1/40000/44967902-42A5-BD40-8A97-F7E7B3E8BD22.root
p2
a.