(lp0
Vroot://cms-xrdr.private.lo:2094//xrd/store/data/Run2018D/SingleMuon/NANOAOD/Nano1June2019-v1/30000/26DC1EEA-CB8B-A044-900D-32FA2AEE8A93.root
p1
aVroot://cms-xrdr.private.lo:2094//xrd/store/data/Run2018D/SingleMuon/NANOAOD/Nano1June2019-v1/30000/2B31C81A-B93A-8644-8E79-A3DBF956383D.root
p2
a.