(lp0
Vroot://cms-xrdr.private.lo:2094//xrd/store/data/Run2018A/DoubleMuon/NANOAOD/Nano1June2019-v1/60000/017DBA0C-2440-6D40-B437-290B38A5E68A.root
p1
aVroot://cms-xrdr.private.lo:2094//xrd/store/data/Run2018A/DoubleMuon/NANOAOD/Nano1June2019-v1/60000/0465AEA5-29AC-494E-9D23-F155AEA3E0E1.root
p2
a.