(lp0
Vroot://cms-xrdr.private.lo:2094//xrd/store/data/Run2018A/SingleMuon/NANOAOD/Nano1June2019-v1/30000/140EBC0E-B451-BC43-973B-9D57AA19AA22.root
p1
aVroot://cms-xrdr.private.lo:2094//xrd/store/data/Run2018A/SingleMuon/NANOAOD/Nano1June2019-v1/30000/1740D2C0-4BEA-264B-81CE-17B7543E18DB.root
p2
a.