(lp0
Vroot://cms-xrdr.private.lo:2094//xrd/store/data/Run2018A/SingleMuon/NANOAOD/Nano1June2019-v1/40000/E8080DDB-6847-5847-B6DE-3E59B27C69D4.root
p1
aVroot://cms-xrdr.private.lo:2094//xrd/store/data/Run2018A/SingleMuon/NANOAOD/Nano1June2019-v1/40000/E9AECE24-131F-674A-B3A4-5AC405B479B6.root
p2
a.