(lp0
Vroot://cms-xrdr.private.lo:2094//xrd/store/data/Run2018D/EGamma/NANOAOD/Nano1June2019-v1/70000/DCAF295F-3351-0C44-8365-227CD8107CBD.root
p1
aVroot://cms-xrdr.private.lo:2094//xrd/store/data/Run2018D/EGamma/NANOAOD/Nano1June2019-v1/70000/DE82D06B-2A55-FF4D-8508-F7363B3FE9BA.root
p2
a.