(lp0
Vroot://cms-xrdr.private.lo:2094//xrd/store/data/Run2018C/MuonEG/NANOAOD/Nano1June2019-v1/60000/53629529-1AA2-024D-A97D-597686BBD12B.root
p1
aVroot://cms-xrdr.private.lo:2094//xrd/store/data/Run2018C/MuonEG/NANOAOD/Nano1June2019-v1/60000/646DA86E-2C3B-804B-90C5-EC8840C9BF10.root
p2
a.