(lp0
Vroot://cms-xrdr.private.lo:2094//xrd/store/data/Run2018B/EGamma/NANOAOD/Nano1June2019-v1/40000/5427E5CE-F55A-5B4C-86A0-E72AB9FCB3BC.root
p1
aVroot://cms-xrdr.private.lo:2094//xrd/store/data/Run2018B/EGamma/NANOAOD/Nano1June2019-v1/40000/546F2EB4-84FF-EA4E-9439-E91D28B45896.root
p2
a.