(lp0
Vroot://cms-xrdr.private.lo:2094//xrd/store/data/Run2018C/SingleMuon/NANOAOD/Nano1June2019-v1/40000/AF4AF18C-E6C5-7E47-8D4F-F75E6D94D6D9.root
p1
aVroot://cms-xrdr.private.lo:2094//xrd/store/data/Run2018C/SingleMuon/NANOAOD/Nano1June2019-v1/40000/BE0629B0-02DB-C346-8E98-4B6A40ADF93E.root
p2
a.