(lp0
Vroot://cms-xrdr.private.lo:2094//xrd/store/data/Run2018D/SingleMuon/NANOAOD/Nano1June2019-v1/40000/4B88AFEE-D4B3-1F4D-A9A0-B63409A22B64.root
p1
aVroot://cms-xrdr.private.lo:2094//xrd/store/data/Run2018D/SingleMuon/NANOAOD/Nano1June2019-v1/40000/4E863FD9-C450-FF41-AB28-5EBB80F820A3.root
p2
a.