(lp0
Vroot://cms-xrdr.private.lo:2094//xrd/store/data/Run2018B/EGamma/NANOAOD/Nano1June2019-v1/40000/D4CC4FFA-58D5-6642-A598-CE476627EA67.root
p1
aVroot://cms-xrdr.private.lo:2094//xrd/store/data/Run2018B/EGamma/NANOAOD/Nano1June2019-v1/40000/D5E2612D-8EAB-AB41-87DB-73F8823CC87A.root
p2
a.