(lp0
Vroot://cms-xrdr.private.lo:2094//xrd/store/data/Run2018B/EGamma/NANOAOD/Nano1June2019-v1/40000/95B0AB88-40CC-F444-9574-DAC2F3F0BE25.root
p1
aVroot://cms-xrdr.private.lo:2094//xrd/store/data/Run2018B/EGamma/NANOAOD/Nano1June2019-v1/40000/9774CA11-5B65-A348-A583-AD79C802D795.root
p2
a.