(lp0
Vroot://cms-xrdr.private.lo:2094//xrd/store/data/Run2018C/SingleMuon/NANOAOD/Nano1June2019-v1/70000/C4AE86A6-DEA3-BF41-9561-46F218F58E79.root
p1
aVroot://cms-xrdr.private.lo:2094//xrd/store/data/Run2018C/SingleMuon/NANOAOD/Nano1June2019-v1/70000/C4EE5A91-733D-7A4B-AAE7-FBACB8F87541.root
p2
a.