(lp0
Vroot://cms-xrdr.private.lo:2094//xrd/store/data/Run2018B/SingleMuon/NANOAOD/Nano1June2019-v1/60000/CCE56E9F-1010-7B41-968B-EFA61815C401.root
p1
aVroot://cms-xrdr.private.lo:2094//xrd/store/data/Run2018B/SingleMuon/NANOAOD/Nano1June2019-v1/60000/D02D9A9E-06C1-AA41-A618-47AC831DB1FA.root
p2
a.