(lp0
Vroot://cms-xrdr.private.lo:2094//xrd/store/data/Run2018A/EGamma/NANOAOD/Nano1June2019-v1/40000/D1986089-33BF-8143-AA21-70FF9E8F4854.root
p1
aVroot://cms-xrdr.private.lo:2094//xrd/store/data/Run2018A/EGamma/NANOAOD/Nano1June2019-v1/40000/D1EF6891-C0A5-EB47-8A4B-662D95D1A303.root
p2
a.