(lp0
Vroot://cms-xrdr.private.lo:2094//xrd/store/data/Run2018A/EGamma/NANOAOD/Nano1June2019-v1/40000/92C47230-B6C6-6A4B-8152-BB52EBDE5031.root
p1
aVroot://cms-xrdr.private.lo:2094//xrd/store/data/Run2018A/EGamma/NANOAOD/Nano1June2019-v1/40000/93B3141D-9131-AB45-B127-02D0B22D0672.root
p2
a.