(lp0
Vroot://cms-xrdr.private.lo:2094//xrd/store/data/Run2018D/EGamma/NANOAOD/Nano1June2019-v1/40000/A3AA4FB6-18F6-D04E-9F58-30902489214E.root
p1
aVroot://cms-xrdr.private.lo:2094//xrd/store/data/Run2018D/EGamma/NANOAOD/Nano1June2019-v1/40000/A3ADD574-470B-A947-AD47-EB51C744A2AA.root
p2
a.