(lp0
Vroot://cms-xrdr.private.lo:2094//xrd/store/data/Run2018D/EGamma/NANOAOD/Nano1June2019-v1/70000/3F3DB6EE-0A32-CA4E-86EE-A0C729CCE61C.root
p1
aVroot://cms-xrdr.private.lo:2094//xrd/store/data/Run2018D/EGamma/NANOAOD/Nano1June2019-v1/70000/3FC795C4-7782-5E41-9F41-6AC155C4942E.root
p2
a.