(lp0
Vroot://cms-xrdr.private.lo:2094//xrd/store/data/Run2018A/EGamma/NANOAOD/Nano1June2019-v1/40000/4E45A878-232C-FA45-A385-0AEED7A1E489.root
p1
aVroot://cms-xrdr.private.lo:2094//xrd/store/data/Run2018A/EGamma/NANOAOD/Nano1June2019-v1/40000/4FFD3C21-04E0-4F41-A6A4-01D25F9835E2.root
p2
a.