(lp0
Vroot://cms-xrdr.private.lo:2094//xrd/store/data/Run2018A/SingleMuon/NANOAOD/Nano1June2019-v1/40000/0DA7ED30-6611-B543-8E11-B1A13B247C0A.root
p1
aVroot://cms-xrdr.private.lo:2094//xrd/store/data/Run2018A/SingleMuon/NANOAOD/Nano1June2019-v1/40000/0EE388FC-1258-BB45-9F73-F59DD36FCAA7.root
p2
a.