(lp0
Vroot://cms-xrdr.private.lo:2094//xrd/store/data/Run2018A/EGamma/NANOAOD/Nano1June2019-v1/40000/AF349584-36B3-4840-BCE0-B94E2F9C91F5.root
p1
aVroot://cms-xrdr.private.lo:2094//xrd/store/data/Run2018A/EGamma/NANOAOD/Nano1June2019-v1/40000/B0CB5860-0B51-AF4F-A27A-F05937D513CE.root
p2
a.