(lp0
Vroot://cms-xrdr.private.lo:2094//xrd/store/data/Run2018A/EGamma/NANOAOD/Nano1June2019-v1/40000/4BA6E980-6D16-AA40-BAC3-846F6B048C6F.root
p1
aVroot://cms-xrdr.private.lo:2094//xrd/store/data/Run2018A/EGamma/NANOAOD/Nano1June2019-v1/40000/4C5822A8-4392-5644-B702-2DE52E5AB31B.root
p2
a.