(lp0
Vroot://cms-xrdr.private.lo:2094//xrd/store/data/Run2018B/SingleMuon/NANOAOD/Nano1June2019-v1/60000/D047E563-41E4-924B-836F-171F5354AA32.root
p1
aVroot://cms-xrdr.private.lo:2094//xrd/store/data/Run2018B/SingleMuon/NANOAOD/Nano1June2019-v1/60000/D75265CE-C8E4-F443-9E0D-E0323A3F4574.root
p2
a.