(lp0
Vroot://cms-xrdr.private.lo:2094//xrd/store/data/Run2018B/SingleMuon/NANOAOD/Nano1June2019-v1/40000/3AC11CAC-C718-C140-BE1D-97BFB017E428.root
p1
aVroot://cms-xrdr.private.lo:2094//xrd/store/data/Run2018B/SingleMuon/NANOAOD/Nano1June2019-v1/40000/46A28D90-B575-1548-AA23-7B9013BCD3A6.root
p2
a.