(lp0
Vroot://cms-xrdr.private.lo:2094//xrd/store/data/Run2018D/EGamma/NANOAOD/Nano1June2019-v1/70000/0872AE62-3E87-EF44-9962-7ABB104B3713.root
p1
aVroot://cms-xrdr.private.lo:2094//xrd/store/data/Run2018D/EGamma/NANOAOD/Nano1June2019-v1/70000/0C366927-9A5E-FF41-83A5-9ADADE2E7E7A.root
p2
a.