(lp0
Vroot://cms-xrdr.private.lo:2094//xrd/store/data/Run2018D/SingleMuon/NANOAOD/Nano1June2019-v1/40000/7F890D9C-DA38-D04B-959F-512BC18D24F4.root
p1
aVroot://cms-xrdr.private.lo:2094//xrd/store/data/Run2018D/SingleMuon/NANOAOD/Nano1June2019-v1/40000/7FCE4243-AAB8-6540-81AF-BD650D4A5E0F.root
p2
a.