(lp0
Vroot://cms-xrdr.private.lo:2094//xrd/store/data/Run2018D/SingleMuon/NANOAOD/Nano1June2019-v1/40000/A8116CAD-081D-9642-A6FA-CC730C4F5B8A.root
p1
aVroot://cms-xrdr.private.lo:2094//xrd/store/data/Run2018D/SingleMuon/NANOAOD/Nano1June2019-v1/40000/AA2A6E9D-2F18-B544-B6F1-7A1958631603.root
p2
a.