(lp0
Vroot://cms-xrdr.private.lo:2094//xrd/store/data/Run2018B/SingleMuon/NANOAOD/Nano1June2019-v1/40000/2020F15C-ABA2-1D49-8099-00A09510FA7D.root
p1
aVroot://cms-xrdr.private.lo:2094//xrd/store/data/Run2018B/SingleMuon/NANOAOD/Nano1June2019-v1/40000/212B079A-AE9A-8F46-B1F5-190855A637A6.root
p2
a.