(lp0
Vroot://cms-xrdr.private.lo:2094//xrd/store/data/Run2018A/SingleMuon/NANOAOD/Nano1June2019-v1/40000/CC55A77F-9BD6-E44C-B9BE-336676B150C0.root
p1
aVroot://cms-xrdr.private.lo:2094//xrd/store/data/Run2018A/SingleMuon/NANOAOD/Nano1June2019-v1/40000/CE28BD41-BF86-BB40-A55F-FDD1BBA2BEC0.root
p2
a.