(lp0
Vroot://cms-xrdr.private.lo:2094//xrd/store/data/Run2018D/EGamma/NANOAOD/Nano1June2019-v1/40000/08DD0652-19C7-EA44-B576-C3B7C6F7093C.root
p1
aVroot://cms-xrdr.private.lo:2094//xrd/store/data/Run2018D/EGamma/NANOAOD/Nano1June2019-v1/40000/09ABF30B-BEA7-6A45-812B-5017EB7C3513.root
p2
a.