(lp0
Vroot://cms-xrdr.private.lo:2094//xrd/store/data/Run2018C/EGamma/NANOAOD/Nano1June2019-v1/230000/C345E011-C681-414B-9723-2EABA1718A08.root
p1
aVroot://cms-xrdr.private.lo:2094//xrd/store/data/Run2018C/EGamma/NANOAOD/Nano1June2019-v1/230000/C9614EB6-9F08-8742-9D2B-52290A3BF1F3.root
p2
a.