(lp0
Vroot://cms-xrdr.private.lo:2094//xrd/store/data/Run2018A/DoubleMuon/NANOAOD/Nano1June2019-v1/60000/29599D74-4FB1-9A49-B650-A59364D60C47.root
p1
aVroot://cms-xrdr.private.lo:2094//xrd/store/data/Run2018A/DoubleMuon/NANOAOD/Nano1June2019-v1/60000/2D9F7CCD-5567-C64C-B99C-58C63302EEC0.root
p2
a.