(lp0
Vroot://cms-xrdr.private.lo:2094//xrd/store/data/Run2018A/DoubleMuon/NANOAOD/Nano1June2019-v1/60000/F7AE9368-0429-844B-BF91-8DDC9085E8F9.root
p1
aVroot://cms-xrdr.private.lo:2094//xrd/store/data/Run2018A/DoubleMuon/NANOAOD/Nano1June2019-v1/60000/FA391677-4E3D-C648-8CFE-2F6DF82A6795.root
p2
a.