(lp0
Vroot://cms-xrdr.private.lo:2094//xrd/store/data/Run2018B/EGamma/NANOAOD/Nano1June2019-v1/40000/F6E5AC9C-7877-444B-B512-341BE702C7C2.root
p1
aVroot://cms-xrdr.private.lo:2094//xrd/store/data/Run2018B/EGamma/NANOAOD/Nano1June2019-v1/40000/F8C0EF64-8649-8540-819E-7516D56C9812.root
p2
a.