(lp0
Vroot://cms-xrdr.private.lo:2094//xrd/store/data/Run2018D/EGamma/NANOAOD/Nano1June2019-v1/40000/33C1C86E-AD60-6A4F-843E-6DD7F27AF739.root
p1
aVroot://cms-xrdr.private.lo:2094//xrd/store/data/Run2018D/EGamma/NANOAOD/Nano1June2019-v1/40000/340EEA99-8C99-4948-B14B-43B13A9ACF73.root
p2
a.