(lp0
Vroot://cms-xrdr.private.lo:2094//xrd/store/data/Run2018A/SingleMuon/NANOAOD/Nano1June2019-v1/40000/E189C125-DE4C-9E45-9904-9C7B2F9EF3F0.root
p1
aVroot://cms-xrdr.private.lo:2094//xrd/store/data/Run2018A/SingleMuon/NANOAOD/Nano1June2019-v1/40000/E37FF744-98B5-9042-A1D7-93F22CA52D25.root
p2
a.