(lp0
Vroot://cms-xrdr.private.lo:2094//xrd/store/data/Run2018A/DoubleMuon/NANOAOD/Nano1June2019-v1/60000/49EBB0DE-31B3-5A4D-ABAB-8468921B653F.root
p1
aVroot://cms-xrdr.private.lo:2094//xrd/store/data/Run2018A/DoubleMuon/NANOAOD/Nano1June2019-v1/60000/4C3EB6F6-FD70-AD4D-898E-A7C9E45D154D.root
p2
a.