(lp0
Vroot://cms-xrdr.private.lo:2094//xrd/store/data/Run2018C/MuonEG/NANOAOD/Nano1June2019-v1/60000/96C0FF89-F0DF-0A41-B800-9789BC7A9381.root
p1
aVroot://cms-xrdr.private.lo:2094//xrd/store/data/Run2018C/MuonEG/NANOAOD/Nano1June2019-v1/60000/9B321D63-9494-A94B-9999-DF71E5443031.root
p2
a.