(lp0
Vroot://cms-xrdr.private.lo:2094//xrd/store/data/Run2018A/EGamma/NANOAOD/Nano1June2019-v1/40000/BD7E1AD3-8346-C34D-A923-A09CB0C68919.root
p1
aVroot://cms-xrdr.private.lo:2094//xrd/store/data/Run2018A/EGamma/NANOAOD/Nano1June2019-v1/40000/BE5856B4-DF7B-8B4E-9767-69F10400D119.root
p2
a.