(lp0
Vroot://cms-xrdr.private.lo:2094//xrd/store/data/Run2018A/SingleMuon/NANOAOD/Nano1June2019-v1/30000/8D4115F5-46A9-7B45-A85E-A121CC8CA463.root
p1
aVroot://cms-xrdr.private.lo:2094//xrd/store/data/Run2018A/SingleMuon/NANOAOD/Nano1June2019-v1/30000/A2D72700-A59B-3F47-A520-B282514C1E18.root
p2
a.