(lp0
Vroot://cms-xrdr.private.lo:2094//xrd/store/data/Run2018B/EGamma/NANOAOD/Nano1June2019-v1/40000/E3643168-926E-E54D-8979-B4313CF5B93B.root
p1
aVroot://cms-xrdr.private.lo:2094//xrd/store/data/Run2018B/EGamma/NANOAOD/Nano1June2019-v1/40000/EAEC9D37-6873-DD42-A703-5282F31B3D9A.root
p2
a.