(lp0
Vroot://cms-xrdr.private.lo:2094//xrd/store/data/Run2018C/SingleMuon/NANOAOD/Nano1June2019-v1/70000/5A639AA9-19CB-6D41-BD3F-62CC110E8F4E.root
p1
aVroot://cms-xrdr.private.lo:2094//xrd/store/data/Run2018C/SingleMuon/NANOAOD/Nano1June2019-v1/70000/5E4A3EA4-7E9B-374C-8DFF-D5B76E4182B7.root
p2
a.