(lp0
Vroot://cms-xrdr.private.lo:2094//xrd/store/data/Run2018D/EGamma/NANOAOD/Nano1June2019-v1/70000/D10EDA8C-181B-5743-AB25-DFDCF189E221.root
p1
aVroot://cms-xrdr.private.lo:2094//xrd/store/data/Run2018D/EGamma/NANOAOD/Nano1June2019-v1/70000/D227532F-54B7-4A46-BB21-CFAFC48C0EAD.root
p2
a.