(lp0
Vroot://cms-xrdr.private.lo:2094//xrd/store/data/Run2018A/DoubleMuon/NANOAOD/Nano1June2019-v1/60000/B8515617-C778-D545-A338-AD63F865F67C.root
p1
aVroot://cms-xrdr.private.lo:2094//xrd/store/data/Run2018A/DoubleMuon/NANOAOD/Nano1June2019-v1/60000/BC29D6E4-CD22-C74E-B9D9-4B3AAD26396A.root
p2
a.