(lp0
Vroot://cms-xrdr.private.lo:2094//xrd/store/data/Run2018A/SingleMuon/NANOAOD/Nano1June2019-v1/40000/CA4DB55C-826F-C043-9BCE-C8B6D37FDD4F.root
p1
aVroot://cms-xrdr.private.lo:2094//xrd/store/data/Run2018A/SingleMuon/NANOAOD/Nano1June2019-v1/40000/CAFC8739-9B4C-A344-8BEB-719773102881.root
p2
a.