(lp0
Vroot://cms-xrdr.private.lo:2094//xrd/store/data/Run2018D/EGamma/NANOAOD/Nano1June2019-v1/70000/F702A920-F86E-2F4B-8567-F610074CC954.root
p1
aVroot://cms-xrdr.private.lo:2094//xrd/store/data/Run2018D/EGamma/NANOAOD/Nano1June2019-v1/70000/F7CDE5E6-5F28-E54C-B9AF-AFF16461047B.root
p2
a.