(lp0
Vroot://cms-xrdr.private.lo:2094//xrd/store/data/Run2018D/EGamma/NANOAOD/Nano1June2019-v1/40000/80398611-7964-5640-9688-7E8CF2A00D90.root
p1
aVroot://cms-xrdr.private.lo:2094//xrd/store/data/Run2018D/EGamma/NANOAOD/Nano1June2019-v1/40000/82BDBCB1-8EBB-2847-878B-0B463858B5A9.root
p2
a.