(lp0
Vroot://cms-xrdr.private.lo:2094//xrd/store/data/Run2018D/SingleMuon/NANOAOD/Nano1June2019-v1/40000/9F9B239F-208B-BF4F-A297-7386BCDA2B3B.root
p1
aVroot://cms-xrdr.private.lo:2094//xrd/store/data/Run2018D/SingleMuon/NANOAOD/Nano1June2019-v1/40000/A39FBEBB-899D-254D-A2D4-12D9DD0F394C.root
p2
a.