(lp0
Vroot://cms-xrdr.private.lo:2094//xrd/store/data/Run2018D/DoubleMuon/NANOAOD/Nano1June2019_ver2-v1/40000/BC2C59D7-BB5D-054C-9D4D-768AA08ED59D.root
p1
aVroot://cms-xrdr.private.lo:2094//xrd/store/data/Run2018D/DoubleMuon/NANOAOD/Nano1June2019_ver2-v1/40000/BC96CDA1-3C9C-EC44-8255-622FB5C03313.root
p2
a.