(lp0
Vroot://cms-xrdr.private.lo:2094//xrd/store/data/Run2018D/EGamma/NANOAOD/Nano1June2019-v1/40000/93514719-CAE0-E649-83A0-4A6172B13EB4.root
p1
aVroot://cms-xrdr.private.lo:2094//xrd/store/data/Run2018D/EGamma/NANOAOD/Nano1June2019-v1/40000/93B76037-C6EF-BC4D-A90C-9F4A0737CDE4.root
p2
a.