(lp0
Vroot://cms-xrdr.private.lo:2094//xrd/store/data/Run2018B/EGamma/NANOAOD/Nano1June2019-v1/40000/2D902F2B-889E-1847-9655-3C5C160B5247.root
p1
aVroot://cms-xrdr.private.lo:2094//xrd/store/data/Run2018B/EGamma/NANOAOD/Nano1June2019-v1/40000/38CFE37A-FC87-9642-9E07-80CEEDE917FC.root
p2
a.