(lp0
Vroot://cms-xrdr.private.lo:2094//xrd/store/data/Run2018D/EGamma/NANOAOD/Nano1June2019-v1/70000/4262ECB9-8FFC-6D4D-9189-1E85BF39BCA0.root
p1
aVroot://cms-xrdr.private.lo:2094//xrd/store/data/Run2018D/EGamma/NANOAOD/Nano1June2019-v1/70000/4D14C25B-19AC-494C-9926-A52EF77E6880.root
p2
a.