(lp0
Vroot://cms-xrdr.private.lo:2094//xrd/store/data/Run2018C/SingleMuon/NANOAOD/Nano1June2019-v1/70000/B745C547-966B-E441-925B-52B0AB6B8146.root
p1
aVroot://cms-xrdr.private.lo:2094//xrd/store/data/Run2018C/SingleMuon/NANOAOD/Nano1June2019-v1/70000/B85C4D03-7FBA-BE42-8EF7-0EAD756D42F2.root
p2
a.