(lp0
Vroot://cms-xrdr.private.lo:2094//xrd/store/data/Run2018A/EGamma/NANOAOD/Nano1June2019-v1/40000/CB6FD084-ECCF-5E43-BC68-FE3C87361BA6.root
p1
aVroot://cms-xrdr.private.lo:2094//xrd/store/data/Run2018A/EGamma/NANOAOD/Nano1June2019-v1/40000/CBDA8325-B946-9C46-B158-DC5DC1A0F415.root
p2
a.