(lp0
Vroot://cms-xrdr.private.lo:2094//xrd/store/data/Run2018A/SingleMuon/NANOAOD/Nano1June2019-v1/40000/E6A5E359-9922-FE4A-BDC7-CEAFE7A09D0C.root
p1
aVroot://cms-xrdr.private.lo:2094//xrd/store/data/Run2018A/SingleMuon/NANOAOD/Nano1June2019-v1/40000/E6A6CF23-608B-B54D-84AC-F06EBF4862B7.root
p2
a.