(lp0
Vroot://cms-xrdr.private.lo:2094//xrd/store/data/Run2018D/SingleMuon/NANOAOD/Nano1June2019-v1/40000/5AD73D66-9553-CD46-95D6-BE1E60A6F539.root
p1
aVroot://cms-xrdr.private.lo:2094//xrd/store/data/Run2018D/SingleMuon/NANOAOD/Nano1June2019-v1/40000/5BD2899F-2E9A-A741-8946-B59DA03A5536.root
p2
a.