(lp0
Vroot://cms-xrdr.private.lo:2094//xrd/store/data/Run2018D/EGamma/NANOAOD/Nano1June2019-v1/40000/1EA127E1-E3FE-7C47-A240-3519186D6BB8.root
p1
aVroot://cms-xrdr.private.lo:2094//xrd/store/data/Run2018D/EGamma/NANOAOD/Nano1June2019-v1/40000/2019F69F-DE7B-2147-9E9E-6905E62549A9.root
p2
a.