(lp0
Vroot://cms-xrdr.private.lo:2094//xrd/store/data/Run2018D/SingleMuon/NANOAOD/Nano1June2019-v1/30000/7BF5BB91-822E-3F42-82FC-DE95ED68B714.root
p1
aVroot://cms-xrdr.private.lo:2094//xrd/store/data/Run2018D/SingleMuon/NANOAOD/Nano1June2019-v1/30000/7CB94937-48F2-474A-B8CB-7E2E356E52DD.root
p2
a.