(lp0
Vroot://cms-xrdr.private.lo:2094//xrd/store/data/Run2018D/SingleMuon/NANOAOD/Nano1June2019-v1/40000/B8974A9B-3604-0F43-9A95-808EAF292857.root
p1
aVroot://cms-xrdr.private.lo:2094//xrd/store/data/Run2018D/SingleMuon/NANOAOD/Nano1June2019-v1/40000/B8AF06AB-C395-8548-97C7-FFDF7109EC9F.root
p2
a.