(lp0
Vroot://cms-xrdr.private.lo:2094//xrd/store/data/Run2018D/SingleMuon/NANOAOD/Nano1June2019-v1/40000/56543C99-BEB6-EB4B-9322-F91566848E3B.root
p1
aVroot://cms-xrdr.private.lo:2094//xrd/store/data/Run2018D/SingleMuon/NANOAOD/Nano1June2019-v1/40000/5A7F48BE-72AD-884A-B1D9-51639E9102AC.root
p2
a.