(lp0
Vroot://cms-xrdr.private.lo:2094//xrd/store/data/Run2018D/EGamma/NANOAOD/Nano1June2019-v1/40000/09D3704F-8D32-0A49-8AE3-B00309CB549D.root
p1
aVroot://cms-xrdr.private.lo:2094//xrd/store/data/Run2018D/EGamma/NANOAOD/Nano1June2019-v1/40000/0C3B4AB5-2615-F24C-8F87-98FC18A88EBD.root
p2
a.