(lp0
Vroot://cms-xrdr.private.lo:2094//xrd/store/data/Run2018D/EGamma/NANOAOD/Nano1June2019-v1/40000/9DBDFB0D-2292-1C41-996E-E37B36EDDC25.root
p1
aVroot://cms-xrdr.private.lo:2094//xrd/store/data/Run2018D/EGamma/NANOAOD/Nano1June2019-v1/40000/9DF534B9-2A9B-B94F-A9C8-CEBDF99E2EB3.root
p2
a.