(lp0
Vroot://cms-xrdr.private.lo:2094//xrd/store/data/Run2018D/SingleMuon/NANOAOD/Nano1June2019-v1/40000/9A4BA0F8-2D06-C945-8C4C-31C58EBEFDA1.root
p1
aVroot://cms-xrdr.private.lo:2094//xrd/store/data/Run2018D/SingleMuon/NANOAOD/Nano1June2019-v1/40000/9A6BE19C-E357-474A-A80A-0E35E678523B.root
p2
a.