(lp0
Vroot://cms-xrdr.private.lo:2094//xrd/store/data/Run2018B/DoubleMuon/NANOAOD/Nano1June2019-v1/40000/6A72B5E5-2DAE-DC46-8BD6-25A25BABCB19.root
p1
aVroot://cms-xrdr.private.lo:2094//xrd/store/data/Run2018B/DoubleMuon/NANOAOD/Nano1June2019-v1/40000/6E78D20B-5ECE-2249-810B-CE5C933C89C3.root
p2
a.