(lp0
Vroot://cms-xrdr.private.lo:2094//xrd/store/data/Run2018D/EGamma/NANOAOD/Nano1June2019-v1/70000/EC2FA881-117A-FE49-A4AB-BFD1EAC917B3.root
p1
aVroot://cms-xrdr.private.lo:2094//xrd/store/data/Run2018D/EGamma/NANOAOD/Nano1June2019-v1/70000/EC4753DA-136F-984D-A23C-32CC4F6EB589.root
p2
a.