(lp0
Vroot://cms-xrdr.private.lo:2094//xrd/store/data/Run2018D/EGamma/NANOAOD/Nano1June2019-v1/70000/200BB26C-F5D7-C946-B9E5-3440BFD421BF.root
p1
aVroot://cms-xrdr.private.lo:2094//xrd/store/data/Run2018D/EGamma/NANOAOD/Nano1June2019-v1/70000/2113C8E1-A52C-A648-A41C-052FADB5EF2C.root
p2
a.