(lp0
Vroot://cms-xrdr.private.lo:2094//xrd/store/data/Run2018C/EGamma/NANOAOD/Nano1June2019-v1/230000/57E3497A-B704-4F45-B67C-8E2852E0F605.root
p1
aVroot://cms-xrdr.private.lo:2094//xrd/store/data/Run2018C/EGamma/NANOAOD/Nano1June2019-v1/230000/5E83D37A-98F4-9C44-99DA-709CDF565DC5.root
p2
a.