(lp0
Vroot://cms-xrdr.private.lo:2094//xrd/store/data/Run2018D/SingleMuon/NANOAOD/Nano1June2019-v1/40000/3B41FFC5-A779-664C-8603-BF0167A9319A.root
p1
aVroot://cms-xrdr.private.lo:2094//xrd/store/data/Run2018D/SingleMuon/NANOAOD/Nano1June2019-v1/40000/3B9B825C-BA71-BC49-B3FE-B4DFCE8216AB.root
p2
a.