(lp0
Vroot://cms-xrdr.private.lo:2094//xrd/store/data/Run2018B/EGamma/NANOAOD/Nano1June2019-v1/40000/AAEF6080-FDF0-1E45-BFA8-6A4424D77076.root
p1
aVroot://cms-xrdr.private.lo:2094//xrd/store/data/Run2018B/EGamma/NANOAOD/Nano1June2019-v1/40000/AC87B70A-A5D5-5B4F-9508-F63421C5FF64.root
p2
a.