(lp0
Vroot://cms-xrdr.private.lo:2094//xrd/store/data/Run2018D/EGamma/NANOAOD/Nano1June2019-v1/40000/9802C3BC-7481-8442-9518-B16383DBAE29.root
p1
aVroot://cms-xrdr.private.lo:2094//xrd/store/data/Run2018D/EGamma/NANOAOD/Nano1June2019-v1/40000/98402DA2-5AB8-5340-9BE1-3C268BE3CC69.root
p2
a.