(lp0
Vroot://cms-xrdr.private.lo:2094//xrd/store/data/Run2018B/SingleMuon/NANOAOD/Nano1June2019-v1/40000/131ED31A-1151-FA48-BC8E-82F2FFD9BA28.root
p1
aVroot://cms-xrdr.private.lo:2094//xrd/store/data/Run2018B/SingleMuon/NANOAOD/Nano1June2019-v1/40000/177B868A-C591-8D48-9955-30B9A1B019A2.root
p2
a.