(lp0
Vroot://cms-xrdr.private.lo:2094//xrd/store/data/Run2018B/EGamma/NANOAOD/Nano1June2019-v1/40000/843EDA89-085A-2F45-8289-BE72B7B6B06C.root
p1
aVroot://cms-xrdr.private.lo:2094//xrd/store/data/Run2018B/EGamma/NANOAOD/Nano1June2019-v1/40000/89E13BE3-F195-0B4D-808E-69D3B06670B0.root
p2
a.