(lp0
Vroot://cms-xrdr.private.lo:2094//xrd/store/data/Run2018A/SingleMuon/NANOAOD/Nano1June2019-v1/40000/E4E054FE-25F7-F24B-88A3-C3E4C272470B.root
p1
aVroot://cms-xrdr.private.lo:2094//xrd/store/data/Run2018A/SingleMuon/NANOAOD/Nano1June2019-v1/40000/E4E0B2C6-8123-F74C-A555-608104DBAEA4.root
p2
a.