(lp0
Vroot://cms-xrdr.private.lo:2094//xrd/store/data/Run2018B/SingleMuon/NANOAOD/Nano1June2019-v1/60000/B4AFCC6E-A2ED-2B4C-8391-055D733775B4.root
p1
aVroot://cms-xrdr.private.lo:2094//xrd/store/data/Run2018B/SingleMuon/NANOAOD/Nano1June2019-v1/60000/B64C599E-C0EA-F24B-9DC5-B8F66BDA6DCB.root
p2
a.