(lp0
Vroot://cms-xrdr.private.lo:2094//xrd/store/data/Run2018A/EGamma/NANOAOD/Nano1June2019-v1/40000/26C3E50D-36B5-9C49-818D-B129B62EDB12.root
p1
aVroot://cms-xrdr.private.lo:2094//xrd/store/data/Run2018A/EGamma/NANOAOD/Nano1June2019-v1/40000/2A756969-E006-4348-8F14-B4B2B2EA4398.root
p2
a.