(lp0
Vroot://cms-xrdr.private.lo:2094//xrd/store/data/Run2018D/DoubleMuon/NANOAOD/Nano1June2019_ver2-v1/30000/D0B5B0E5-16CF-FC41-AA6E-FC54759FE48A.root
p1
aVroot://cms-xrdr.private.lo:2094//xrd/store/data/Run2018D/DoubleMuon/NANOAOD/Nano1June2019_ver2-v1/30000/D58AC25C-6492-E04F-A888-87E00B70272A.root
p2
a.