(lp0
Vroot://cms-xrdr.private.lo:2094//xrd/store/data/Run2018B/SingleMuon/NANOAOD/Nano1June2019-v1/60000/D7EE5830-2BA7-ED4F-B8D2-213E50FFD069.root
p1
aVroot://cms-xrdr.private.lo:2094//xrd/store/data/Run2018B/SingleMuon/NANOAOD/Nano1June2019-v1/60000/D8700635-C6F8-F242-9250-5B9222746118.root
p2
a.