(lp0
Vroot://cms-xrdr.private.lo:2094//xrd/store/data/Run2018A/EGamma/NANOAOD/Nano1June2019-v1/40000/E52B1B91-8CD9-B74A-AA4C-FA1100C1F882.root
p1
aVroot://cms-xrdr.private.lo:2094//xrd/store/data/Run2018A/EGamma/NANOAOD/Nano1June2019-v1/40000/E53656B6-5140-5745-BA37-3EC382B47677.root
p2
a.