(lp0
Vroot://cms-xrdr.private.lo:2094//xrd/store/data/Run2018B/EGamma/NANOAOD/Nano1June2019-v1/40000/7ACE2415-E03A-5A4E-B564-BAB2C0996FC2.root
p1
aVroot://cms-xrdr.private.lo:2094//xrd/store/data/Run2018B/EGamma/NANOAOD/Nano1June2019-v1/40000/7CB363DB-C294-A04E-B939-0B9C3A93EE77.root
p2
a.