(lp0
Vroot://cms-xrdr.private.lo:2094//xrd/store/data/Run2018D/EGamma/NANOAOD/Nano1June2019-v1/70000/69CC5411-2E7F-1045-A7D6-8F8BC62ADFED.root
p1
aVroot://cms-xrdr.private.lo:2094//xrd/store/data/Run2018D/EGamma/NANOAOD/Nano1June2019-v1/70000/6E892EC4-85E3-224C-B871-B766D8FBE925.root
p2
a.