(lp0
Vroot://cms-xrdr.private.lo:2094//xrd/store/data/Run2018D/EGamma/NANOAOD/Nano1June2019-v1/70000/26FD8FF2-B064-7845-AC46-DECD17735CDC.root
p1
aVroot://cms-xrdr.private.lo:2094//xrd/store/data/Run2018D/EGamma/NANOAOD/Nano1June2019-v1/70000/2850CA7A-8F55-3A4E-BC12-527835BCC4C5.root
p2
a.