(lp0
Vroot://cms-xrdr.private.lo:2094//xrd/store/data/Run2018C/SingleMuon/NANOAOD/Nano1June2019-v1/70000/0E0AC835-19BC-324B-AFC7-3C3A464B54BC.root
p1
aVroot://cms-xrdr.private.lo:2094//xrd/store/data/Run2018C/SingleMuon/NANOAOD/Nano1June2019-v1/70000/0EA106A5-11E5-0D40-BEF1-9D912133A9D4.root
p2
a.