(lp0
Vroot://cms-xrdr.private.lo:2094//xrd/store/data/Run2018A/EGamma/NANOAOD/Nano1June2019-v1/40000/CC9ABEC9-04E5-B742-A565-BB5CF5F1AA05.root
p1
aVroot://cms-xrdr.private.lo:2094//xrd/store/data/Run2018A/EGamma/NANOAOD/Nano1June2019-v1/40000/CE35E4FA-DB74-E343-9512-CC248ACBFA8C.root
p2
a.