(lp0
Vroot://cms-xrdr.private.lo:2094//xrd/store/data/Run2018A/EGamma/NANOAOD/Nano1June2019-v1/40000/B93159CE-D372-EB4B-8C1F-BA512DD3288E.root
p1
aVroot://cms-xrdr.private.lo:2094//xrd/store/data/Run2018A/EGamma/NANOAOD/Nano1June2019-v1/40000/BB85DF0E-5E25-1E45-9DE7-D1FABE8CF03F.root
p2
a.