(lp0
Vroot://cms-xrdr.private.lo:2094//xrd/store/data/Run2018A/SingleMuon/NANOAOD/Nano1June2019-v1/40000/49C901FA-670F-CD42-ACEA-170091F9E9D7.root
p1
aVroot://cms-xrdr.private.lo:2094//xrd/store/data/Run2018A/SingleMuon/NANOAOD/Nano1June2019-v1/40000/4BBE71E0-5960-EB43-A644-673FB5A61A7E.root
p2
a.