(lp0
Vroot://cms-xrdr.private.lo:2094//xrd/store/data/Run2018C/MuonEG/NANOAOD/Nano1June2019-v1/60000/009B7B3D-395D-D744-8B78-059E5418C98F.root
p1
aVroot://cms-xrdr.private.lo:2094//xrd/store/data/Run2018C/MuonEG/NANOAOD/Nano1June2019-v1/60000/1A103366-F35C-3C47-B9C2-6A45BE80F69F.root
p2
a.