(lp0
Vroot://cms-xrdr.private.lo:2094//xrd/store/data/Run2018D/EGamma/NANOAOD/Nano1June2019-v1/40000/74F1A748-C7CD-554C-BFE3-DFE870402A82.root
p1
aVroot://cms-xrdr.private.lo:2094//xrd/store/data/Run2018D/EGamma/NANOAOD/Nano1June2019-v1/40000/751F3ED7-3449-5F43-A334-13DD11D8E1E7.root
p2
a.