(lp0
Vroot://cms-xrdr.private.lo:2094//xrd/store/data/Run2018A/SingleMuon/NANOAOD/Nano1June2019-v1/40000/75616D22-9AF5-F944-9515-A7CEC0FE0758.root
p1
aVroot://cms-xrdr.private.lo:2094//xrd/store/data/Run2018A/SingleMuon/NANOAOD/Nano1June2019-v1/40000/76AFD071-E6B5-F94F-A4A0-D930F452C8A3.root
p2
a.