(lp0
Vroot://cms-xrdr.private.lo:2094//xrd/store/data/Run2018D/DoubleMuon/NANOAOD/Nano1June2019_ver2-v1/40000/8F74BB29-65E7-0D4B-97B6-1F5678CAD97E.root
p1
aVroot://cms-xrdr.private.lo:2094//xrd/store/data/Run2018D/DoubleMuon/NANOAOD/Nano1June2019_ver2-v1/40000/90EB6E4F-A6A8-D046-91C1-1275E5E8F24E.root
p2
a.