(lp0
Vroot://cms-xrdr.private.lo:2094//xrd/store/data/Run2018C/EGamma/NANOAOD/Nano1June2019-v1/230000/C96C3DAD-116E-0D44-A8D0-D94498D49F0B.root
p1
aVroot://cms-xrdr.private.lo:2094//xrd/store/data/Run2018C/EGamma/NANOAOD/Nano1June2019-v1/230000/CCA8399B-2925-304A-B343-3E9464A95E9E.root
p2
a.