(lp0
Vroot://cms-xrdr.private.lo:2094//xrd/store/data/Run2018A/DoubleMuon/NANOAOD/Nano1June2019-v1/60000/0AC3D743-76EE-BC43-97A9-5C827067C6B7.root
p1
aVroot://cms-xrdr.private.lo:2094//xrd/store/data/Run2018A/DoubleMuon/NANOAOD/Nano1June2019-v1/60000/0DE07ED0-7DB4-734E-9EF5-96ABAD896910.root
p2
a.