(lp0
Vroot://cms-xrdr.private.lo:2094//xrd/store/data/Run2018D/DoubleMuon/NANOAOD/Nano1June2019_ver2-v1/30000/ACEBE6D3-95F0-8043-BD05-3C2EA161E38F.root
p1
aVroot://cms-xrdr.private.lo:2094//xrd/store/data/Run2018D/DoubleMuon/NANOAOD/Nano1June2019_ver2-v1/30000/B6042E6F-E472-E748-87C1-13EFD1673D39.root
p2
a.