(lp0
Vroot://cms-xrdr.private.lo:2094//xrd/store/data/Run2018A/MuonEG/NANOAOD/Nano1June2019-v1/40000/DB26BF3D-3C0A-5D40-9D6B-F5C5EDFC20FA.root
p1
aVroot://cms-xrdr.private.lo:2094//xrd/store/data/Run2018A/MuonEG/NANOAOD/Nano1June2019-v1/40000/E4C2015F-C7FB-A84E-8683-6BF92B16861C.root
p2
a.