(lp0
Vroot://cms-xrdr.private.lo:2094//xrd/store/data/Run2018D/SingleMuon/NANOAOD/Nano1June2019-v1/40000/5D52AA40-6281-C845-9508-CB4762E74E17.root
p1
aVroot://cms-xrdr.private.lo:2094//xrd/store/data/Run2018D/SingleMuon/NANOAOD/Nano1June2019-v1/40000/5D8FF223-FB0F-A44A-BFD9-CA18329DE68F.root
p2
a.