(lp0
Vroot://cms-xrdr.private.lo:2094//xrd/store/data/Run2018B/EGamma/NANOAOD/Nano1June2019-v1/40000/9F01AAAE-8E49-0141-BCEE-0E69F927AB8D.root
p1
aVroot://cms-xrdr.private.lo:2094//xrd/store/data/Run2018B/EGamma/NANOAOD/Nano1June2019-v1/40000/A2F00201-4373-6245-B194-D1F6358402D7.root
p2
a.