(lp0
Vroot://cms-xrdr.private.lo:2094//xrd/store/data/Run2018A/SingleMuon/NANOAOD/Nano1June2019-v1/40000/52E5E0E4-AB96-8F42-93CB-B8683DEA6CE1.root
p1
aVroot://cms-xrdr.private.lo:2094//xrd/store/data/Run2018A/SingleMuon/NANOAOD/Nano1June2019-v1/40000/53735882-C418-AB4F-90A4-57A065F9B2AF.root
p2
a.