(lp0
Vroot://cms-xrdr.private.lo:2094//xrd/store/data/Run2018B/SingleMuon/NANOAOD/Nano1June2019-v1/60000/0E79CAA7-C152-5B45-9BE9-C9254E179E07.root
p1
aVroot://cms-xrdr.private.lo:2094//xrd/store/data/Run2018B/SingleMuon/NANOAOD/Nano1June2019-v1/60000/1B868BE8-0220-C844-9FB6-D5A79404CE26.root
p2
a.