(lp0
Vroot://cms-xrdr.private.lo:2094//xrd/store/data/Run2018C/DoubleMuon/NANOAOD/Nano1June2019-v1/40000/16A36467-F8D9-6944-8F2F-CE0722B41DCD.root
p1
aVroot://cms-xrdr.private.lo:2094//xrd/store/data/Run2018C/DoubleMuon/NANOAOD/Nano1June2019-v1/40000/37836901-43C6-774C-BEE3-E3E9E5D7CF75.root
p2
a.