(lp0
Vroot://cms-xrdr.private.lo:2094//xrd/store/data/Run2018D/EGamma/NANOAOD/Nano1June2019-v1/70000/9949A841-CFAA-5C48-BA5D-C8E0003A8524.root
p1
aVroot://cms-xrdr.private.lo:2094//xrd/store/data/Run2018D/EGamma/NANOAOD/Nano1June2019-v1/70000/99685D6A-A79A-FE43-BD0E-8D450AA9131D.root
p2
a.