(lp0
Vroot://cms-xrdr.private.lo:2094//xrd/store/data/Run2018D/MuonEG/NANOAOD/Nano1June2019_ver2-v1/70000/6BFF0536-F214-8746-A453-717D6BFC8CE1.root
p1
aVroot://cms-xrdr.private.lo:2094//xrd/store/data/Run2018D/MuonEG/NANOAOD/Nano1June2019_ver2-v1/70000/794D652B-9AB0-064D-A7B2-EFCDEA9B540E.root
p2
a.