(lp0
Vroot://cms-xrdr.private.lo:2094//xrd/store/data/Run2018D/EGamma/NANOAOD/Nano1June2019-v1/40000/B559F536-2891-F542-925B-5553D1EBAA22.root
p1
aVroot://cms-xrdr.private.lo:2094//xrd/store/data/Run2018D/EGamma/NANOAOD/Nano1June2019-v1/40000/B572A21D-38A2-5E4F-8E8B-7789924B8F05.root
p2
a.