(lp0
Vroot://cms-xrdr.private.lo:2094//xrd/store/data/Run2018D/SingleMuon/NANOAOD/Nano1June2019-v1/40000/2EBE8D21-24DD-A943-95DB-EF61AB628BC5.root
p1
aVroot://cms-xrdr.private.lo:2094//xrd/store/data/Run2018D/SingleMuon/NANOAOD/Nano1June2019-v1/40000/306EF03F-5063-EC4B-92CD-A984DE7A0D94.root
p2
a.