(lp0
Vroot://cms-xrdr.private.lo:2094//xrd/store/data/Run2018D/SingleMuon/NANOAOD/Nano1June2019-v1/40000/2C56CB37-095C-8243-9276-499B7D6C6B8E.root
p1
aVroot://cms-xrdr.private.lo:2094//xrd/store/data/Run2018D/SingleMuon/NANOAOD/Nano1June2019-v1/40000/2DB83B64-2721-454E-A147-FF1D67C4DFAE.root
p2
a.