(lp0
Vroot://cms-xrdr.private.lo:2094//xrd/store/data/Run2018B/DoubleMuon/NANOAOD/Nano1June2019-v1/40000/99FDCABF-780B-8545-952C-49AE8D411EE3.root
p1
aVroot://cms-xrdr.private.lo:2094//xrd/store/data/Run2018B/DoubleMuon/NANOAOD/Nano1June2019-v1/40000/A069CCB6-94B4-C945-B2D1-167B95597186.root
p2
a.