(lp0
Vroot://cms-xrdr.private.lo:2094//xrd/store/data/Run2018B/SingleMuon/NANOAOD/Nano1June2019-v1/60000/5653A2EE-BCAC-CA4B-8C2D-E6AA732387B0.root
p1
aVroot://cms-xrdr.private.lo:2094//xrd/store/data/Run2018B/SingleMuon/NANOAOD/Nano1June2019-v1/60000/6BE249F5-70BA-B64C-99EC-681B676E4AAB.root
p2
a.