(lp0
Vroot://cms-xrdr.private.lo:2094//xrd/store/data/Run2018C/SingleMuon/NANOAOD/Nano1June2019-v1/40000/266ADC9D-E01E-AD4C-BF26-277555608C31.root
p1
aVroot://cms-xrdr.private.lo:2094//xrd/store/data/Run2018C/SingleMuon/NANOAOD/Nano1June2019-v1/40000/2803BA5C-1381-3447-B162-9B0B64DDCBE6.root
p2
a.