(lp0
Vroot://cms-xrdr.private.lo:2094//xrd/store/data/Run2018D/EGamma/NANOAOD/Nano1June2019-v1/70000/7AC34788-1CE5-DA4B-B575-B180DF3657FE.root
p1
aVroot://cms-xrdr.private.lo:2094//xrd/store/data/Run2018D/EGamma/NANOAOD/Nano1June2019-v1/70000/7B938D19-FC44-A24B-AFBB-E23DBFF5FFDD.root
p2
a.