(lp0
Vroot://cms-xrdr.private.lo:2094//xrd/store/data/Run2018B/EGamma/NANOAOD/Nano1June2019-v1/40000/3A6C127C-E168-CC49-AB73-2C9F9276A43D.root
p1
aVroot://cms-xrdr.private.lo:2094//xrd/store/data/Run2018B/EGamma/NANOAOD/Nano1June2019-v1/40000/3E3B8A4C-5419-724E-AFAC-D45F8600BFCD.root
p2
a.