(lp0
Vroot://cms-xrdr.private.lo:2094//xrd/store/data/Run2018B/EGamma/NANOAOD/Nano1June2019-v1/40000/602A538C-3A4B-C94A-B0B7-AF5231A49D2E.root
p1
aVroot://cms-xrdr.private.lo:2094//xrd/store/data/Run2018B/EGamma/NANOAOD/Nano1June2019-v1/40000/603AF180-E664-7B4B-98C7-F701438EEE1B.root
p2
a.