(lp0
Vroot://cms-xrdr.private.lo:2094//xrd/store/data/Run2018A/SingleMuon/NANOAOD/Nano1June2019-v1/40000/1E3A57B4-BAD2-624A-A4B7-A1CEA9DF41C7.root
p1
aVroot://cms-xrdr.private.lo:2094//xrd/store/data/Run2018A/SingleMuon/NANOAOD/Nano1June2019-v1/40000/1E7B03F7-9F37-3B45-8660-BFFB3553DE41.root
p2
a.