(lp0
Vroot://cms-xrdr.private.lo:2094//xrd/store/data/Run2018B/DoubleMuon/NANOAOD/Nano1June2019-v1/40000/87EA3C75-83B5-714B-8EFF-4F9C1656B513.root
p1
aVroot://cms-xrdr.private.lo:2094//xrd/store/data/Run2018B/DoubleMuon/NANOAOD/Nano1June2019-v1/40000/8A8BA36D-B669-D149-A0FB-A9F778A87B93.root
p2
a.