(lp0
Vroot://cms-xrdr.private.lo:2094//xrd/store/data/Run2018A/SingleMuon/NANOAOD/Nano1June2019-v1/40000/54DBB1A7-DC83-6A41-A103-55BE07FD45BB.root
p1
aVroot://cms-xrdr.private.lo:2094//xrd/store/data/Run2018A/SingleMuon/NANOAOD/Nano1June2019-v1/40000/55EBED56-F443-8E41-AEC8-564F82A31E2C.root
p2
a.