(lp0
Vroot://cms-xrdr.private.lo:2094//xrd/store/data/Run2018C/SingleMuon/NANOAOD/Nano1June2019-v1/40000/0F639B8D-105C-F648-AE3D-E7DBA0B2AFDC.root
p1
aVroot://cms-xrdr.private.lo:2094//xrd/store/data/Run2018C/SingleMuon/NANOAOD/Nano1June2019-v1/40000/16CE8414-DA09-CE4C-8392-FFE0A33DEB35.root
p2
a.