(lp0
Vroot://cms-xrdr.private.lo:2094//xrd/store/data/Run2018A/EGamma/NANOAOD/Nano1June2019-v1/40000/2B0EAE1A-ED40-904B-B3C6-6D1379B9D662.root
p1
aVroot://cms-xrdr.private.lo:2094//xrd/store/data/Run2018A/EGamma/NANOAOD/Nano1June2019-v1/40000/2B19EF27-7B5A-B742-966E-BCD1C989C84C.root
p2
a.