(lp0
Vroot://cms-xrdr.private.lo:2094//xrd/store/data/Run2018A/SingleMuon/NANOAOD/Nano1June2019-v1/30000/320BAFC9-4BBA-FA40-A0DD-53BE19B1D10B.root
p1
aVroot://cms-xrdr.private.lo:2094//xrd/store/data/Run2018A/SingleMuon/NANOAOD/Nano1June2019-v1/30000/395E4CA0-0E66-3540-8035-D080CEC1AB22.root
p2
a.