(lp0
Vroot://cms-xrdr.private.lo:2094//xrd/store/data/Run2018C/MuonEG/NANOAOD/Nano1June2019-v1/40000/875329FC-B9BB-3F42-BEAF-FA1049F22A08.root
p1
aVroot://cms-xrdr.private.lo:2094//xrd/store/data/Run2018C/MuonEG/NANOAOD/Nano1June2019-v1/40000/91DDA355-6745-AE4E-8043-E6F8E3F05204.root
p2
a.