(lp0
Vroot://cms-xrdr.private.lo:2094//xrd/store/data/Run2018A/EGamma/NANOAOD/Nano1June2019-v1/40000/ED3841A0-84D0-744E-BB58-020FF5186FD9.root
p1
aVroot://cms-xrdr.private.lo:2094//xrd/store/data/Run2018A/EGamma/NANOAOD/Nano1June2019-v1/40000/EECA43A9-CB1E-0445-A040-E5ED15574A26.root
p2
a.