(lp0
Vroot://cms-xrdr.private.lo:2094//xrd/store/data/Run2018A/SingleMuon/NANOAOD/Nano1June2019-v1/40000/76FAF0D7-4188-3148-8F8B-164587331A1A.root
p1
aVroot://cms-xrdr.private.lo:2094//xrd/store/data/Run2018A/SingleMuon/NANOAOD/Nano1June2019-v1/40000/7779C767-6AA1-054F-A464-37D96AD10D2F.root
p2
a.