(lp0
Vroot://cms-xrdr.private.lo:2094//xrd/store/data/Run2018D/MuonEG/NANOAOD/Nano1June2019_ver2-v1/70000/B73A6F6D-EBDD-6C42-BE85-901DA3763602.root
p1
aVroot://cms-xrdr.private.lo:2094//xrd/store/data/Run2018D/MuonEG/NANOAOD/Nano1June2019_ver2-v1/70000/B9D48C77-4EC5-3C42-B72A-D4297BA3A1F8.root
p2
a.