(lp0
Vroot://cms-xrdr.private.lo:2094//xrd/store/data/Run2018C/SingleMuon/NANOAOD/Nano1June2019-v1/70000/02C7821D-DF9E-3042-9912-99FBB6792E2A.root
p1
aVroot://cms-xrdr.private.lo:2094//xrd/store/data/Run2018C/SingleMuon/NANOAOD/Nano1June2019-v1/70000/03369DA5-3FB7-7A44-8D02-8104C8D2D202.root
p2
a.