(lp0
Vroot://cms-xrdr.private.lo:2094//xrd/store/data/Run2018D/EGamma/NANOAOD/Nano1June2019-v1/40000/73F83624-D019-404E-87AC-41774D5022EC.root
p1
aVroot://cms-xrdr.private.lo:2094//xrd/store/data/Run2018D/EGamma/NANOAOD/Nano1June2019-v1/40000/74D83AC1-CC63-CD4F-8A11-42C2B874D71D.root
p2
a.