(lp0
Vroot://cms-xrdr.private.lo:2094//xrd/store/data/Run2018D/EGamma/NANOAOD/Nano1June2019-v1/40000/73AA5A64-63CD-374F-A9ED-4089C82CBF91.root
p1
aVroot://cms-xrdr.private.lo:2094//xrd/store/data/Run2018D/EGamma/NANOAOD/Nano1June2019-v1/40000/73E9191E-DA9B-B243-82C6-D527983DBD62.root
p2
a.