(lp0
Vroot://cms-xrdr.private.lo:2094//xrd/store/data/Run2018D/EGamma/NANOAOD/Nano1June2019-v1/70000/3CEB8E20-C84C-DB44-AC66-1FFEDC37BB8D.root
p1
aVroot://cms-xrdr.private.lo:2094//xrd/store/data/Run2018D/EGamma/NANOAOD/Nano1June2019-v1/70000/3EDDC37E-08F6-874A-AF05-8EBA9B7BC978.root
p2
a.