(lp0
Vroot://cms-xrdr.private.lo:2094//xrd/store/data/Run2018D/SingleMuon/NANOAOD/Nano1June2019-v1/40000/808212E6-2E3D-7C40-B4BA-F2A1BBB8BD61.root
p1
aVroot://cms-xrdr.private.lo:2094//xrd/store/data/Run2018D/SingleMuon/NANOAOD/Nano1June2019-v1/40000/842E38E4-2DA2-1C4E-9598-4B2EC29FBDE4.root
p2
a.