(lp0
Vroot://cms-xrdr.private.lo:2094//xrd/store/data/Run2018A/EGamma/NANOAOD/Nano1June2019-v1/40000/3C6E9975-6BA0-234D-9938-D2420CD5A5CB.root
p1
aVroot://cms-xrdr.private.lo:2094//xrd/store/data/Run2018A/EGamma/NANOAOD/Nano1June2019-v1/40000/3F84F4FA-B2DB-8144-976F-85BF9280FBB4.root
p2
a.