(lp0
Vroot://cms-xrdr.private.lo:2094//xrd/store/data/Run2018A/EGamma/NANOAOD/Nano1June2019-v1/40000/6028CE39-1871-FD45-8C2F-8BEDD6AC062C.root
p1
aVroot://cms-xrdr.private.lo:2094//xrd/store/data/Run2018A/EGamma/NANOAOD/Nano1June2019-v1/40000/62D47D52-FFED-294F-A826-8742BC40C668.root
p2
a.