(lp0
Vroot://cms-xrdr.private.lo:2094//xrd/store/data/Run2018D/SingleMuon/NANOAOD/Nano1June2019-v1/40000/AFD16169-E1E5-8143-8364-177D1D0364CB.root
p1
aVroot://cms-xrdr.private.lo:2094//xrd/store/data/Run2018D/SingleMuon/NANOAOD/Nano1June2019-v1/40000/B008BEEA-B391-CD41-BA72-FBB0C5E41CAC.root
p2
a.