(lp0
Vroot://cms-xrdr.private.lo:2094//xrd/store/data/Run2018A/EGamma/NANOAOD/Nano1June2019-v1/40000/2F212323-56B3-274C-AA37-4E186510D4E7.root
p1
aVroot://cms-xrdr.private.lo:2094//xrd/store/data/Run2018A/EGamma/NANOAOD/Nano1June2019-v1/40000/2F5BE963-A5BE-B24A-BF93-831B69DABB79.root
p2
a.