(lp0
Vroot://cms-xrdr.private.lo:2094//xrd/store/data/Run2018C/EGamma/NANOAOD/Nano1June2019-v1/230000/171D1056-19CE-1C40-B91F-8128D6AFBDCA.root
p1
aVroot://cms-xrdr.private.lo:2094//xrd/store/data/Run2018C/EGamma/NANOAOD/Nano1June2019-v1/230000/17665178-C8A7-D340-8562-3F576B0B53FC.root
p2
a.