(lp0
Vroot://cms-xrdr.private.lo:2094//xrd/store/data/Run2018D/SingleMuon/NANOAOD/Nano1June2019-v1/40000/CA20A5EB-4A21-A740-9862-2B02AE850DB9.root
p1
aVroot://cms-xrdr.private.lo:2094//xrd/store/data/Run2018D/SingleMuon/NANOAOD/Nano1June2019-v1/40000/CA3A9A86-D3D7-1F47-8475-036FC6CA45F3.root
p2
a.