(lp0
Vroot://cms-xrdr.private.lo:2094//xrd/store/data/Run2018C/EGamma/NANOAOD/Nano1June2019-v1/240000/1DCDD163-D2E7-3046-9DB6-F3CC7867F17A.root
p1
aVroot://cms-xrdr.private.lo:2094//xrd/store/data/Run2018C/EGamma/NANOAOD/Nano1June2019-v1/240000/20FD1080-3A25-1644-866D-A71D55D77A8D.root
p2
a.