(lp0
Vroot://cms-xrdr.private.lo:2094//xrd/store/data/Run2018A/SingleMuon/NANOAOD/Nano1June2019-v1/40000/5BF6B32F-F6BE-7A43-87B6-1A650A5954FA.root
p1
aVroot://cms-xrdr.private.lo:2094//xrd/store/data/Run2018A/SingleMuon/NANOAOD/Nano1June2019-v1/40000/5D5296EF-4545-FC4D-A03B-CE9DC1158B17.root
p2
a.