(lp0
Vroot://cms-xrdr.private.lo:2094//xrd/store/data/Run2018D/EGamma/NANOAOD/Nano1June2019-v1/70000/72544F79-C641-414D-AE95-AF6DEF1A00EC.root
p1
aVroot://cms-xrdr.private.lo:2094//xrd/store/data/Run2018D/EGamma/NANOAOD/Nano1June2019-v1/70000/72FE0392-DD4E-4043-8C48-2931F3B177A8.root
p2
a.