(lp0
Vroot://cms-xrdr.private.lo:2094//xrd/store/data/Run2018A/DoubleMuon/NANOAOD/Nano1June2019-v1/60000/C0264C05-6D82-3B4F-845C-2C8177287EB1.root
p1
aVroot://cms-xrdr.private.lo:2094//xrd/store/data/Run2018A/DoubleMuon/NANOAOD/Nano1June2019-v1/60000/C21BE1F9-4EF1-C042-8668-69BB986328B7.root
p2
a.