(lp0
Vroot://cms-xrdr.private.lo:2094//xrd/store/data/Run2018C/EGamma/NANOAOD/Nano1June2019-v1/240000/9326024D-6B22-FF49-8381-06A56B584B25.root
p1
aVroot://cms-xrdr.private.lo:2094//xrd/store/data/Run2018C/EGamma/NANOAOD/Nano1June2019-v1/240000/9365B28A-58E4-DC4C-8051-6CDC9F75B5AC.root
p2
a.