(lp0
Vroot://cms-xrdr.private.lo:2094//xrd/store/data/Run2018B/EGamma/NANOAOD/Nano1June2019-v1/40000/E2216986-3B20-DC4E-A9DE-67EF5258EEE5.root
p1
aVroot://cms-xrdr.private.lo:2094//xrd/store/data/Run2018B/EGamma/NANOAOD/Nano1June2019-v1/40000/E2686EE9-9097-A947-AE3B-A46628405E7C.root
p2
a.