(lp0
Vroot://cms-xrdr.private.lo:2094//xrd/store/data/Run2018A/SingleMuon/NANOAOD/Nano1June2019-v1/40000/F2DAB023-D160-CC48-A2CA-03A190D08E75.root
p1
aVroot://cms-xrdr.private.lo:2094//xrd/store/data/Run2018A/SingleMuon/NANOAOD/Nano1June2019-v1/40000/F3701B80-9FF7-C349-95B4-3E96CDBBFC06.root
p2
a.