(lp0
Vroot://cms-xrdr.private.lo:2094//xrd/store/data/Run2018D/SingleMuon/NANOAOD/Nano1June2019-v1/40000/31231DB2-A786-7C4E-B9AB-515B9C052584.root
p1
aVroot://cms-xrdr.private.lo:2094//xrd/store/data/Run2018D/SingleMuon/NANOAOD/Nano1June2019-v1/40000/31ACCED1-4E9D-4843-9EFB-F1CF151AEF1E.root
p2
a.