(lp0
Vroot://cms-xrdr.private.lo:2094//xrd/store/data/Run2018D/EGamma/NANOAOD/Nano1June2019-v1/40000/66D96BC5-4F00-9B41-8750-8CBB804AC661.root
p1
aVroot://cms-xrdr.private.lo:2094//xrd/store/data/Run2018D/EGamma/NANOAOD/Nano1June2019-v1/40000/690DD5A0-9760-7F43-9B54-D05D38483AC9.root
p2
a.