(lp0
Vroot://cms-xrdr.private.lo:2094//xrd/store/data/Run2018A/MuonEG/NANOAOD/Nano1June2019-v1/40000/56A86243-BA79-B045-8AA5-E274C0E0D41D.root
p1
aVroot://cms-xrdr.private.lo:2094//xrd/store/data/Run2018A/MuonEG/NANOAOD/Nano1June2019-v1/40000/61B26E97-4865-BF4E-BA1F-CDF38F873E51.root
p2
a.