(lp0
Vroot://cms-xrdr.private.lo:2094//xrd/store/data/Run2018C/SingleMuon/NANOAOD/Nano1June2019-v1/40000/7A4C0208-5325-7049-B86D-E20F75BF7327.root
p1
aVroot://cms-xrdr.private.lo:2094//xrd/store/data/Run2018C/SingleMuon/NANOAOD/Nano1June2019-v1/40000/81D2D727-42AD-4E4E-97C5-7C9FDF874828.root
p2
a.