(lp0
Vroot://cms-xrdr.private.lo:2094//xrd/store/data/Run2018B/SingleMuon/NANOAOD/Nano1June2019-v1/60000/2E87287D-E891-0F48-BCA9-81BB45476BF8.root
p1
aVroot://cms-xrdr.private.lo:2094//xrd/store/data/Run2018B/SingleMuon/NANOAOD/Nano1June2019-v1/60000/2EF6D69C-B719-1948-A717-1C93B5102BF7.root
p2
a.