(lp0
Vroot://cms-xrdr.private.lo:2094//xrd/store/data/Run2018D/EGamma/NANOAOD/Nano1June2019-v1/40000/2EB9C8CE-01E3-CC45-AF5E-4A0FC13D66E0.root
p1
aVroot://cms-xrdr.private.lo:2094//xrd/store/data/Run2018D/EGamma/NANOAOD/Nano1June2019-v1/40000/2F3A4ED8-F083-F94A-8676-BBAC1151876E.root
p2
a.