(lp0
Vroot://cms-xrdr.private.lo:2094//xrd/store/data/Run2018A/EGamma/NANOAOD/Nano1June2019-v1/40000/A765951E-49CB-EB4E-94BC-302D5BDF7B50.root
p1
aVroot://cms-xrdr.private.lo:2094//xrd/store/data/Run2018A/EGamma/NANOAOD/Nano1June2019-v1/40000/A81E8056-D60C-9142-95C7-B9B056F2049B.root
p2
a.