(lp0
Vroot://cms-xrdr.private.lo:2094//xrd/store/data/Run2018D/SingleMuon/NANOAOD/Nano1June2019-v1/40000/C5B91890-B18F-374B-A60E-82FBCF4BE25E.root
p1
aVroot://cms-xrdr.private.lo:2094//xrd/store/data/Run2018D/SingleMuon/NANOAOD/Nano1June2019-v1/40000/C67215C1-E834-6B4E-9DF1-EB2D613889A3.root
p2
a.