(lp0
Vroot://cms-xrdr.private.lo:2094//xrd/store/data/Run2018A/EGamma/NANOAOD/Nano1June2019-v1/40000/57F0F5C5-AE4F-614A-96D6-112B4EDC2769.root
p1
aVroot://cms-xrdr.private.lo:2094//xrd/store/data/Run2018A/EGamma/NANOAOD/Nano1June2019-v1/40000/5A8AEE77-B7F3-664E-83D9-639029DD80B9.root
p2
a.