(lp0
Vroot://cms-xrdr.private.lo:2094//xrd/store/data/Run2018C/SingleMuon/NANOAOD/Nano1June2019-v1/40000/03E28DC0-60ED-F243-A1C5-70A4316F8B90.root
p1
aVroot://cms-xrdr.private.lo:2094//xrd/store/data/Run2018C/SingleMuon/NANOAOD/Nano1June2019-v1/40000/042283EA-11AD-0246-8C1D-0B2559EF2724.root
p2
a.