(lp0
Vroot://cms-xrdr.private.lo:2094//xrd/store/data/Run2018D/EGamma/NANOAOD/Nano1June2019-v1/40000/48F4AD58-2CD9-904C-B691-FC1155E458B9.root
p1
aVroot://cms-xrdr.private.lo:2094//xrd/store/data/Run2018D/EGamma/NANOAOD/Nano1June2019-v1/40000/490E3EB5-AF81-BA4F-B44E-9B6F0A8A141F.root
p2
a.