(lp0
Vroot://cms-xrdr.private.lo:2094//xrd/store/data/Run2018A/SingleMuon/NANOAOD/Nano1June2019-v1/40000/DE7D2B15-21DE-DF4F-98F7-2C8724E39A0D.root
p1
aVroot://cms-xrdr.private.lo:2094//xrd/store/data/Run2018A/SingleMuon/NANOAOD/Nano1June2019-v1/40000/DEA0762F-E7BA-BA44-8C8C-C6C464882DCF.root
p2
a.