(lp0
Vroot://cms-xrdr.private.lo:2094//xrd/store/data/Run2018A/EGamma/NANOAOD/Nano1June2019-v1/40000/4CD86A2C-3972-BF41-9828-1059FBA1EE77.root
p1
aVroot://cms-xrdr.private.lo:2094//xrd/store/data/Run2018A/EGamma/NANOAOD/Nano1June2019-v1/40000/4D04DBE5-E18E-364E-AFC1-A5487060DB2C.root
p2
a.