(lp0
Vroot://cms-xrdr.private.lo:2094//xrd/store/data/Run2018C/SingleMuon/NANOAOD/Nano1June2019-v1/40000/29B67073-F89E-7148-ABE1-73B5FFD4CEF1.root
p1
aVroot://cms-xrdr.private.lo:2094//xrd/store/data/Run2018C/SingleMuon/NANOAOD/Nano1June2019-v1/40000/3482C43D-1D8D-AF4A-9308-29C095C0A84F.root
p2
a.