(lp0
Vroot://cms-xrdr.private.lo:2094//xrd/store/data/Run2018B/EGamma/NANOAOD/Nano1June2019-v1/40000/CFE15D0A-1D3C-B849-BFFF-D9C241BDF232.root
p1
aVroot://cms-xrdr.private.lo:2094//xrd/store/data/Run2018B/EGamma/NANOAOD/Nano1June2019-v1/40000/D3A030D4-DBCF-9F4C-AA67-5E4E9711AB06.root
p2
a.