(lp0
Vroot://cms-xrdr.private.lo:2094//xrd/store/data/Run2018C/SingleMuon/NANOAOD/Nano1June2019-v1/70000/9C606CF2-77D8-E14E-903F-6699807E2CF5.root
p1
aVroot://cms-xrdr.private.lo:2094//xrd/store/data/Run2018C/SingleMuon/NANOAOD/Nano1June2019-v1/70000/9F69F3A8-A852-8C4C-90DA-6B5036FE80DD.root
p2
a.