(lp0
Vroot://cms-xrdr.private.lo:2094//xrd/store/data/Run2018A/EGamma/NANOAOD/Nano1June2019-v1/40000/9B9A7CAA-E3B7-F84D-A40A-30E4A91F6B2E.root
p1
aVroot://cms-xrdr.private.lo:2094//xrd/store/data/Run2018A/EGamma/NANOAOD/Nano1June2019-v1/40000/9F44E683-EE85-9142-B2CF-ECD2FC8AAB95.root
p2
a.