(lp0
Vroot://cms-xrdr.private.lo:2094//xrd/store/data/Run2018D/SingleMuon/NANOAOD/Nano1June2019-v1/30000/765C1984-0E2C-1F4F-959D-E5FDD371D852.root
p1
aVroot://cms-xrdr.private.lo:2094//xrd/store/data/Run2018D/SingleMuon/NANOAOD/Nano1June2019-v1/30000/7BCF9C63-8EF1-BC41-A7B2-F39DEE22E8EE.root
p2
a.