(lp0
Vroot://cms-xrdr.private.lo:2094//xrd/store/data/Run2018C/EGamma/NANOAOD/Nano1June2019-v1/230000/85587905-8537-E249-ADF6-680DB16D3E78.root
p1
aVroot://cms-xrdr.private.lo:2094//xrd/store/data/Run2018C/EGamma/NANOAOD/Nano1June2019-v1/230000/876BF2D6-39A1-8244-BEE1-5378AC4EB58D.root
p2
a.