(lp0
Vroot://cms-xrdr.private.lo:2094//xrd/store/data/Run2018C/EGamma/NANOAOD/Nano1June2019-v1/230000/A1769DC3-1499-8642-B602-F4525D2DBAA0.root
p1
aVroot://cms-xrdr.private.lo:2094//xrd/store/data/Run2018C/EGamma/NANOAOD/Nano1June2019-v1/230000/A9D703C5-199D-8F4A-B4A8-B6D07DF7C090.root
p2
a.