(lp0
Vroot://cms-xrdr.private.lo:2094//xrd/store/data/Run2018B/SingleMuon/NANOAOD/Nano1June2019-v1/40000/9FA11C42-9B1A-6F45-8A67-08C950F96F5A.root
p1
aVroot://cms-xrdr.private.lo:2094//xrd/store/data/Run2018B/SingleMuon/NANOAOD/Nano1June2019-v1/40000/A43CFE57-E6E9-D942-9115-B265671BE6DF.root
p2
a.