(lp0
Vroot://cms-xrdr.private.lo:2094//xrd/store/data/Run2018A/MuonEG/NANOAOD/Nano1June2019-v1/40000/71DA564A-78BE-D541-8606-0017227FA935.root
p1
aVroot://cms-xrdr.private.lo:2094//xrd/store/data/Run2018A/MuonEG/NANOAOD/Nano1June2019-v1/40000/77E96FE0-DF38-A144-8EF9-C1A42FC7ED85.root
p2
a.