(lp0
Vroot://cms-xrdr.private.lo:2094//xrd/store/data/Run2018A/SingleMuon/NANOAOD/Nano1June2019-v1/40000/7CE09E31-D833-6043-A928-6B1F5D42399F.root
p1
aVroot://cms-xrdr.private.lo:2094//xrd/store/data/Run2018A/SingleMuon/NANOAOD/Nano1June2019-v1/40000/7E54BFCF-F314-B842-A751-2D173FB3CB2C.root
p2
a.