(lp0
Vroot://cms-xrdr.private.lo:2094//xrd/store/data/Run2018B/DoubleMuon/NANOAOD/Nano1June2019-v1/40000/785F1C66-9267-F041-BC93-20E14BFBE63D.root
p1
aVroot://cms-xrdr.private.lo:2094//xrd/store/data/Run2018B/DoubleMuon/NANOAOD/Nano1June2019-v1/40000/84BAAB43-26AA-EB40-A40E-04EB7F7033F1.root
p2
a.