(lp0
Vroot://cms-xrdr.private.lo:2094//xrd/store/data/Run2018D/EGamma/NANOAOD/Nano1June2019-v1/70000/4F94115C-4CEC-C44F-9AB2-AB27186E19EC.root
p1
aVroot://cms-xrdr.private.lo:2094//xrd/store/data/Run2018D/EGamma/NANOAOD/Nano1June2019-v1/70000/51D8FE66-79D9-C748-B0C7-6A84C5ADEA64.root
p2
a.