(lp0
Vroot://cms-xrdr.private.lo:2094//xrd/store/data/Run2018D/EGamma/NANOAOD/Nano1June2019-v1/70000/E1D51421-F84E-B54F-B5DC-CB85A6605C93.root
p1
aVroot://cms-xrdr.private.lo:2094//xrd/store/data/Run2018D/EGamma/NANOAOD/Nano1June2019-v1/70000/E2569419-CD3A-5147-B634-35D92EDA6CD2.root
p2
a.