(lp0
Vroot://cms-xrdr.private.lo:2094//xrd/store/data/Run2018B/SingleMuon/NANOAOD/Nano1June2019-v1/60000/A3C5F3AE-BAE9-6D4F-AD63-D56E1723B18B.root
p1
aVroot://cms-xrdr.private.lo:2094//xrd/store/data/Run2018B/SingleMuon/NANOAOD/Nano1June2019-v1/60000/AC28CB13-E32A-E747-8AE6-8CB464544F05.root
p2
a.