(lp0
Vroot://cms-xrdr.private.lo:2094//xrd/store/data/Run2018B/MuonEG/NANOAOD/Nano1June2019-v1/40000/5DCB0670-32DC-D546-ABCE-77E010D77845.root
p1
aVroot://cms-xrdr.private.lo:2094//xrd/store/data/Run2018B/MuonEG/NANOAOD/Nano1June2019-v1/40000/7D6B4EDF-E766-2241-BBC9-3B7E14A1FCFB.root
p2
a.