(lp0
Vroot://cms-xrdr.private.lo:2094//xrd/store/data/Run2018A/MuonEG/NANOAOD/Nano1June2019-v1/40000/B11F2884-E4B5-F04A-A318-AF7B0F6417A1.root
p1
aVroot://cms-xrdr.private.lo:2094//xrd/store/data/Run2018A/MuonEG/NANOAOD/Nano1June2019-v1/40000/C0925276-609F-F14F-9895-FC7FC394C878.root
p2
a.