(lp0
Vroot://cms-xrdr.private.lo:2094//xrd/store/data/Run2018A/EGamma/NANOAOD/Nano1June2019-v1/40000/B43A6A05-53DC-CB44-9A60-735049C103AC.root
p1
aVroot://cms-xrdr.private.lo:2094//xrd/store/data/Run2018A/EGamma/NANOAOD/Nano1June2019-v1/40000/B44CCA14-F111-1A43-9927-4A1579A43E45.root
p2
a.