(lp0
Vroot://cms-xrdr.private.lo:2094//xrd/store/data/Run2018B/SingleMuon/NANOAOD/Nano1June2019-v1/40000/BCDC5839-C847-A741-A0B3-6A3197FEA7DF.root
p1
aVroot://cms-xrdr.private.lo:2094//xrd/store/data/Run2018B/SingleMuon/NANOAOD/Nano1June2019-v1/40000/C070EEF1-959E-3841-8B5C-F63A2E816006.root
p2
a.