(lp0
Vroot://cms-xrdr.private.lo:2094//xrd/store/data/Run2018A/DoubleMuon/NANOAOD/Nano1June2019-v1/60000/F1BA7198-59F9-8343-B098-8640269079B5.root
p1
aVroot://cms-xrdr.private.lo:2094//xrd/store/data/Run2018A/DoubleMuon/NANOAOD/Nano1June2019-v1/60000/F4B7D4D6-3C6E-DE48-A21B-084B9A640CD0.root
p2
a.