(lp0
Vroot://cms-xrdr.private.lo:2094//xrd/store/data/Run2018D/EGamma/NANOAOD/Nano1June2019-v1/70000/CEACD96C-8928-C74E-906D-B6B105F36CD8.root
p1
aVroot://cms-xrdr.private.lo:2094//xrd/store/data/Run2018D/EGamma/NANOAOD/Nano1June2019-v1/70000/CEFF5A77-DFCF-6040-BC44-94069F2B8147.root
p2
a.