(lp0
Vroot://cms-xrdr.private.lo:2094//xrd/store/data/Run2018A/SingleMuon/NANOAOD/Nano1June2019-v1/40000/9FAB3B1B-EC8A-5E4E-B6C2-853BEF83A810.root
p1
aVroot://cms-xrdr.private.lo:2094//xrd/store/data/Run2018A/SingleMuon/NANOAOD/Nano1June2019-v1/40000/9FC2B5D8-CDD8-5444-AE2B-1065DBEEC09E.root
p2
a.