(lp0
Vroot://cms-xrdr.private.lo:2094//xrd/store/data/Run2018D/EGamma/NANOAOD/Nano1June2019-v1/70000/B1CE815F-0052-524A-807C-79B0228F94AE.root
p1
aVroot://cms-xrdr.private.lo:2094//xrd/store/data/Run2018D/EGamma/NANOAOD/Nano1June2019-v1/70000/B3BEA6FF-4692-DB4C-9A0F-B1E156F521A5.root
p2
a.