(lp0
Vroot://cms-xrdr.private.lo:2094//xrd/store/data/Run2018D/SingleMuon/NANOAOD/Nano1June2019-v1/40000/9C126B52-41CE-CE48-93CE-AB2B7E09FB32.root
p1
aVroot://cms-xrdr.private.lo:2094//xrd/store/data/Run2018D/SingleMuon/NANOAOD/Nano1June2019-v1/40000/9DFD9196-F56B-AD4A-B940-14EA6891CDB4.root
p2
a.