(lp0
Vroot://cms-xrdr.private.lo:2094//xrd/store/data/Run2018D/SingleMuon/NANOAOD/Nano1June2019-v1/40000/5F5155EA-6872-4B46-AE29-FDEA87B0A31B.root
p1
aVroot://cms-xrdr.private.lo:2094//xrd/store/data/Run2018D/SingleMuon/NANOAOD/Nano1June2019-v1/40000/60A2FDBB-FAAA-E546-B4C9-040A4FFE938B.root
p2
a.