(lp0
Vroot://cms-xrdr.private.lo:2094//xrd/store/data/Run2018D/SingleMuon/NANOAOD/Nano1June2019-v1/30000/90EDA677-BFEB-4744-AF10-3EDB597F56CF.root
p1
aVroot://cms-xrdr.private.lo:2094//xrd/store/data/Run2018D/SingleMuon/NANOAOD/Nano1June2019-v1/30000/B43B0B8C-CB69-3F48-B9FC-F0ECB9381861.root
p2
a.