(lp0
Vroot://cms-xrdr.private.lo:2094//xrd/store/data/Run2018D/EGamma/NANOAOD/Nano1June2019-v1/40000/77DF35E4-DACC-9D4F-8FB6-860B5AB98B4B.root
p1
aVroot://cms-xrdr.private.lo:2094//xrd/store/data/Run2018D/EGamma/NANOAOD/Nano1June2019-v1/40000/7A71C638-CDE4-5149-8C9D-072369DC5A16.root
p2
a.