(lp0
Vroot://cms-xrdr.private.lo:2094//xrd/store/data/Run2018D/SingleMuon/NANOAOD/Nano1June2019-v1/40000/CA9AB519-25BA-BB4A-A359-6409DCFAB90E.root
p1
aVroot://cms-xrdr.private.lo:2094//xrd/store/data/Run2018D/SingleMuon/NANOAOD/Nano1June2019-v1/40000/CB01BD35-453E-254D-A273-A867E34D7E52.root
p2
a.