(lp0
Vroot://cms-xrdr.private.lo:2094//xrd/store/data/Run2018D/EGamma/NANOAOD/Nano1June2019-v1/40000/30EA4E9E-09F6-2842-847C-0757EB31F405.root
p1
aVroot://cms-xrdr.private.lo:2094//xrd/store/data/Run2018D/EGamma/NANOAOD/Nano1June2019-v1/40000/31378937-13DB-5745-AEB2-30F3BFBE7230.root
p2
a.