(lp0
Vroot://cms-xrdr.private.lo:2094//xrd/store/data/Run2018A/EGamma/NANOAOD/Nano1June2019-v1/40000/A875FCC1-710C-3F43-A028-C2EBE2B416A9.root
p1
aVroot://cms-xrdr.private.lo:2094//xrd/store/data/Run2018A/EGamma/NANOAOD/Nano1June2019-v1/40000/AB89891A-CAAF-6D40-BFFD-F606E92AC041.root
p2
a.