(lp0
Vroot://cms-xrdr.private.lo:2094//xrd/store/data/Run2018B/SingleMuon/NANOAOD/Nano1June2019-v1/60000/9B2A308E-1B9E-7344-8F42-DAB1F30BB65E.root
p1
aVroot://cms-xrdr.private.lo:2094//xrd/store/data/Run2018B/SingleMuon/NANOAOD/Nano1June2019-v1/60000/A3ACCAA4-D396-C34E-A8E9-C67C8884FE78.root
p2
a.