(lp0
Vroot://cms-xrdr.private.lo:2094//xrd/store/data/Run2018D/DoubleMuon/NANOAOD/Nano1June2019_ver2-v1/40000/DE9D0ED0-2C2E-3A40-BD6B-332D450CD2DB.root
p1
aVroot://cms-xrdr.private.lo:2094//xrd/store/data/Run2018D/DoubleMuon/NANOAOD/Nano1June2019_ver2-v1/40000/E83B6BC7-5A8C-2E42-AC22-66D8F5D751E0.root
p2
a.