(lp0
Vroot://cms-xrdr.private.lo:2094//xrd/store/data/Run2018A/EGamma/NANOAOD/Nano1June2019-v1/40000/057B7E6C-DC2A-F74C-B856-4EEB8FA3C740.root
p1
aVroot://cms-xrdr.private.lo:2094//xrd/store/data/Run2018A/EGamma/NANOAOD/Nano1June2019-v1/40000/0B2DDBA0-6775-F04E-B0D8-F55CA32CE521.root
p2
a.