(lp0
Vroot://cms-xrdr.private.lo:2094//xrd/store/data/Run2018A/EGamma/NANOAOD/Nano1June2019-v1/40000/767F69F9-8795-FF4C-9FD4-B42B4718DA5D.root
p1
aVroot://cms-xrdr.private.lo:2094//xrd/store/data/Run2018A/EGamma/NANOAOD/Nano1June2019-v1/40000/77A6271D-FBAE-F749-809B-EA78DE83D801.root
p2
a.