(lp0
Vroot://cms-xrdr.private.lo:2094//xrd/store/data/Run2018A/DoubleMuon/NANOAOD/Nano1June2019-v1/60000/AEC889B0-D3A5-174D-B766-E2844710C6C1.root
p1
aVroot://cms-xrdr.private.lo:2094//xrd/store/data/Run2018A/DoubleMuon/NANOAOD/Nano1June2019-v1/60000/B84F19F8-7495-FA41-B68F-2CC293A2BD2B.root
p2
a.