(lp0
Vroot://cms-xrdr.private.lo:2094//xrd/store/data/Run2018A/DoubleMuon/NANOAOD/Nano1June2019-v1/60000/8A8F6070-3AF9-6F43-AF27-B10D151AD4BC.root
p1
aVroot://cms-xrdr.private.lo:2094//xrd/store/data/Run2018A/DoubleMuon/NANOAOD/Nano1June2019-v1/60000/929BFFF5-E5CC-5841-90BA-D4F5F9BC8F8E.root
p2
a.