(lp0
Vroot://cms-xrdr.private.lo:2094//xrd/store/data/Run2018D/EGamma/NANOAOD/Nano1June2019-v1/70000/82A82F85-7046-DC4B-99E2-9EC18B5CB35C.root
p1
aVroot://cms-xrdr.private.lo:2094//xrd/store/data/Run2018D/EGamma/NANOAOD/Nano1June2019-v1/70000/88FFF6D5-BC1F-8349-BBCC-5F215ED1A149.root
p2
a.