(lp0
Vroot://cms-xrdr.private.lo:2094//xrd/store/data/Run2018A/EGamma/NANOAOD/Nano1June2019-v1/40000/1C3B916C-22AC-A44C-BEA4-2BE73C65B1CE.root
p1
aVroot://cms-xrdr.private.lo:2094//xrd/store/data/Run2018A/EGamma/NANOAOD/Nano1June2019-v1/40000/1E6AD810-5D94-7B42-9C3E-D37525A1E78C.root
p2
a.