(lp0
Vroot://cms-xrdr.private.lo:2094//xrd/store/data/Run2018C/EGamma/NANOAOD/Nano1June2019-v1/230000/92481F83-ADF6-184F-9207-E8AD0302D7DE.root
p1
aVroot://cms-xrdr.private.lo:2094//xrd/store/data/Run2018C/EGamma/NANOAOD/Nano1June2019-v1/230000/9465AB58-BAA7-144A-A47F-FD225330EF71.root
p2
a.