(lp0
Vroot://cms-xrdr.private.lo:2094//xrd/store/data/Run2018D/SingleMuon/NANOAOD/Nano1June2019-v1/40000/78BB2EC7-58E7-FE48-B336-60C5D20ED837.root
p1
aVroot://cms-xrdr.private.lo:2094//xrd/store/data/Run2018D/SingleMuon/NANOAOD/Nano1June2019-v1/40000/7A74F92E-CEB9-4447-8FCE-7C6A0671153D.root
p2
a.