(lp0
Vroot://cms-xrdr.private.lo:2094//xrd/store/data/Run2018A/SingleMuon/NANOAOD/Nano1June2019-v1/30000/C7B53B92-2327-A14F-BCBF-1E278742314B.root
p1
aVroot://cms-xrdr.private.lo:2094//xrd/store/data/Run2018A/SingleMuon/NANOAOD/Nano1June2019-v1/30000/E05A6505-3ECC-AE4B-AC5E-2F31A9430B78.root
p2
a.