(lp0
Vroot://cms-xrdr.private.lo:2094//xrd/store/data/Run2018C/SingleMuon/NANOAOD/Nano1June2019-v1/70000/B2A99D39-2DA4-F344-8BA1-7B43A8815694.root
p1
aVroot://cms-xrdr.private.lo:2094//xrd/store/data/Run2018C/SingleMuon/NANOAOD/Nano1June2019-v1/70000/B374732D-2A67-6345-8CCA-9C9247D61D37.root
p2
a.