(lp0
Vroot://cms-xrdr.private.lo:2094//xrd/store/data/Run2018D/EGamma/NANOAOD/Nano1June2019-v1/70000/5A943473-B16D-CA49-972C-437117A82E6C.root
p1
aVroot://cms-xrdr.private.lo:2094//xrd/store/data/Run2018D/EGamma/NANOAOD/Nano1June2019-v1/70000/5B999A8C-54F4-9547-BF7C-BFF8AA87FC5B.root
p2
a.