(lp0
Vroot://cms-xrdr.private.lo:2094//xrd/store/data/Run2018D/EGamma/NANOAOD/Nano1June2019-v1/40000/3E299D9B-18B9-204F-8F89-A4AB4DD193A9.root
p1
aVroot://cms-xrdr.private.lo:2094//xrd/store/data/Run2018D/EGamma/NANOAOD/Nano1June2019-v1/40000/3EE5810F-3972-EA4E-BD71-82893D41EDDC.root
p2
a.