(lp0
Vroot://cms-xrdr.private.lo:2094//xrd/store/data/Run2018D/EGamma/NANOAOD/Nano1June2019-v1/70000/2AC3D700-0E7E-6546-84C2-9C3114649C75.root
p1
aVroot://cms-xrdr.private.lo:2094//xrd/store/data/Run2018D/EGamma/NANOAOD/Nano1June2019-v1/70000/2B17FB0B-59E8-2E4E-936A-D5902653B4A4.root
p2
a.