(lp0
Vroot://cms-xrdr.private.lo:2094//xrd/store/data/Run2018D/DoubleMuon/NANOAOD/Nano1June2019_ver2-v1/40000/5AF13E57-A9DE-3049-A36B-8636FEAC765B.root
p1
aVroot://cms-xrdr.private.lo:2094//xrd/store/data/Run2018D/DoubleMuon/NANOAOD/Nano1June2019_ver2-v1/40000/5DBCD016-9B90-BE46-81F0-B714A4D9160F.root
p2
a.