(lp0
Vroot://cms-xrdr.private.lo:2094//xrd/store/data/Run2018A/EGamma/NANOAOD/Nano1June2019-v1/40000/DECA851D-9203-1F4C-AD77-37F2C2E28BB7.root
p1
aVroot://cms-xrdr.private.lo:2094//xrd/store/data/Run2018A/EGamma/NANOAOD/Nano1June2019-v1/40000/E09B120A-6B37-F746-A22F-2F62DAE8F4E1.root
p2
a.