(lp0
Vroot://cms-xrdr.private.lo:2094//xrd/store/data/Run2018D/SingleMuon/NANOAOD/Nano1June2019-v1/40000/2962893C-6D2C-B644-A76F-6CBEBF2DE567.root
p1
aVroot://cms-xrdr.private.lo:2094//xrd/store/data/Run2018D/SingleMuon/NANOAOD/Nano1June2019-v1/40000/29682812-DA32-0D42-B81E-B63DC21CD35E.root
p2
a.