(lp0
Vroot://cms-xrdr.private.lo:2094//xrd/store/data/Run2018A/SingleMuon/NANOAOD/Nano1June2019-v1/40000/918D1BA1-FE27-BD4B-845F-0B69FB4988DA.root
p1
aVroot://cms-xrdr.private.lo:2094//xrd/store/data/Run2018A/SingleMuon/NANOAOD/Nano1June2019-v1/40000/92E6C594-4E02-D84B-95B1-AAD0BD0CE6FA.root
p2
a.