(lp0
Vroot://cms-xrdr.private.lo:2094//xrd/store/data/Run2018A/SingleMuon/NANOAOD/Nano1June2019-v1/40000/CF69F77A-6379-834E-9D0D-66C2437142EC.root
p1
aVroot://cms-xrdr.private.lo:2094//xrd/store/data/Run2018A/SingleMuon/NANOAOD/Nano1June2019-v1/40000/D023B175-EDAC-3B4D-ADA8-8B0F421D9AA2.root
p2
a.