(lp0
Vroot://cms-xrdr.private.lo:2094//xrd/store/data/Run2018D/SingleMuon/NANOAOD/Nano1June2019-v1/40000/D2C6F114-F0F6-BD41-A17E-DE277FF14EE1.root
p1
aVroot://cms-xrdr.private.lo:2094//xrd/store/data/Run2018D/SingleMuon/NANOAOD/Nano1June2019-v1/40000/D3452BCB-2B88-7646-AE2B-01333A7A11F5.root
p2
a.