(lp0
Vroot://cms-xrdr.private.lo:2094//xrd/store/data/Run2018D/SingleMuon/NANOAOD/Nano1June2019-v1/40000/8D98A1A7-1568-BE4D-8C6B-ED0A820C9506.root
p1
aVroot://cms-xrdr.private.lo:2094//xrd/store/data/Run2018D/SingleMuon/NANOAOD/Nano1June2019-v1/40000/8EBACC23-69BA-B840-8583-ED1817136FDF.root
p2
a.