(lp0
Vroot://cms-xrdr.private.lo:2094//xrd/store/data/Run2018C/SingleMuon/NANOAOD/Nano1June2019-v1/70000/36D02DAE-34CE-6C43-BD30-AA38D97B9013.root
p1
aVroot://cms-xrdr.private.lo:2094//xrd/store/data/Run2018C/SingleMuon/NANOAOD/Nano1June2019-v1/70000/533D0FF0-4172-854F-A8F1-4B13A9BC3611.root
p2
a.