(lp0
Vroot://cms-xrdr.private.lo:2094//xrd/store/data/Run2018B/DoubleMuon/NANOAOD/Nano1June2019-v1/40000/2D8FC474-B2BE-5B43-9F76-7D6A9906464B.root
p1
aVroot://cms-xrdr.private.lo:2094//xrd/store/data/Run2018B/DoubleMuon/NANOAOD/Nano1June2019-v1/40000/375C506F-70FE-7C4B-9170-FF5C8AA81BAF.root
p2
a.