(lp0
Vroot://cms-xrdr.private.lo:2094//xrd/store/data/Run2018A/EGamma/NANOAOD/Nano1June2019-v1/40000/F643646C-F547-7146-B71E-CB38D3A7D0D8.root
p1
aVroot://cms-xrdr.private.lo:2094//xrd/store/data/Run2018A/EGamma/NANOAOD/Nano1June2019-v1/40000/F73F2FD2-8D9D-D040-A46E-64EF822146E2.root
p2
a.