(lp0
Vroot://cms-xrdr.private.lo:2094//xrd/store/data/Run2018A/EGamma/NANOAOD/Nano1June2019-v1/40000/9F7A4B96-8567-4840-B682-31D927BC82FE.root
p1
aVroot://cms-xrdr.private.lo:2094//xrd/store/data/Run2018A/EGamma/NANOAOD/Nano1June2019-v1/40000/A128EEC5-393A-FD41-A1BD-94EDA268E43A.root
p2
a.