(lp0
Vroot://cms-xrdr.private.lo:2094//xrd/store/data/Run2018C/DoubleMuon/NANOAOD/Nano1June2019-v1/40000/A80A8A31-CD66-1240-9D0B-B276A986FEAA.root
p1
aVroot://cms-xrdr.private.lo:2094//xrd/store/data/Run2018C/DoubleMuon/NANOAOD/Nano1June2019-v1/40000/BE20252B-6A39-2C4B-B6C5-CBB724377816.root
p2
a.