(lp0
Vroot://cms-xrdr.private.lo:2094//xrd/store/data/Run2018A/EGamma/NANOAOD/Nano1June2019-v1/40000/BFA9C315-3A51-964E-99B1-9E058CF9AA1E.root
p1
aVroot://cms-xrdr.private.lo:2094//xrd/store/data/Run2018A/EGamma/NANOAOD/Nano1June2019-v1/40000/C2B7BB5E-C0E0-8C42-B59C-93FB90F51B0E.root
p2
a.