(lp0
Vroot://cms-xrdr.private.lo:2094//xrd/store/data/Run2018D/EGamma/NANOAOD/Nano1June2019-v1/70000/22D07C24-1D96-BE47-9D48-6A134DEEA912.root
p1
aVroot://cms-xrdr.private.lo:2094//xrd/store/data/Run2018D/EGamma/NANOAOD/Nano1June2019-v1/70000/230B401F-BE75-3C43-8D19-8BC13BB56935.root
p2
a.