(lp0
Vroot://cms-xrdr.private.lo:2094//xrd/store/data/Run2018D/SingleMuon/NANOAOD/Nano1June2019-v1/40000/32898C3E-09C9-3C43-B8E5-1E479D593BD0.root
p1
aVroot://cms-xrdr.private.lo:2094//xrd/store/data/Run2018D/SingleMuon/NANOAOD/Nano1June2019-v1/40000/3398AB79-FA08-754C-8116-8065FA0AF3DD.root
p2
a.