(lp0
Vroot://cms-xrdr.private.lo:2094//xrd/store/data/Run2018B/EGamma/NANOAOD/Nano1June2019-v1/40000/6437C6A2-A9E5-194B-87F8-ECD23F8CA849.root
p1
aVroot://cms-xrdr.private.lo:2094//xrd/store/data/Run2018B/EGamma/NANOAOD/Nano1June2019-v1/40000/6A683E2D-3D5A-7A47-8B31-15386213905F.root
p2
a.