(lp0
Vroot://cms-xrdr.private.lo:2094//xrd/store/data/Run2018A/SingleMuon/NANOAOD/Nano1June2019-v1/40000/1BB00262-BFFD-2A4E-8FC9-F222BF7FB893.root
p1
aVroot://cms-xrdr.private.lo:2094//xrd/store/data/Run2018A/SingleMuon/NANOAOD/Nano1June2019-v1/40000/1C080990-8862-F940-9A41-72ED51446CAE.root
p2
a.