(lp0
Vroot://cms-xrdr.private.lo:2094//xrd/store/data/Run2018A/SingleMuon/NANOAOD/Nano1June2019-v1/40000/946F10C8-841B-A740-8C9D-CC5FFD4E56AC.root
p1
aVroot://cms-xrdr.private.lo:2094//xrd/store/data/Run2018A/SingleMuon/NANOAOD/Nano1June2019-v1/40000/97A70EE1-5B96-704A-98C1-D9ECB4E6AA6D.root
p2
a.