(lp0
Vroot://cms-xrdr.private.lo:2094//xrd/store/data/Run2018D/EGamma/NANOAOD/Nano1June2019-v1/70000/06664710-E32F-3E4D-8E2F-EDBEA4A8169E.root
p1
aVroot://cms-xrdr.private.lo:2094//xrd/store/data/Run2018D/EGamma/NANOAOD/Nano1June2019-v1/70000/07362F28-7E64-1644-BBA1-7AFBB484DC2C.root
p2
a.