(lp0
Vroot://cms-xrdr.private.lo:2094//xrd/store/data/Run2018A/SingleMuon/NANOAOD/Nano1June2019-v1/40000/0165D35D-9BD4-A149-9F84-9EB7CF7E03A1.root
p1
aVroot://cms-xrdr.private.lo:2094//xrd/store/data/Run2018A/SingleMuon/NANOAOD/Nano1June2019-v1/40000/034CB4E0-44EE-5542-9499-E686118997B5.root
p2
a.