(lp0
Vroot://cms-xrdr.private.lo:2094//xrd/store/data/Run2018A/MuonEG/NANOAOD/Nano1June2019-v1/40000/9F4CEA3E-5B4C-8441-A063-66D484A3760E.root
p1
aVroot://cms-xrdr.private.lo:2094//xrd/store/data/Run2018A/MuonEG/NANOAOD/Nano1June2019-v1/40000/A741625E-F0A6-AD4B-A41B-B36FF6457379.root
p2
a.