(lp0
Vroot://cms-xrdr.private.lo:2094//xrd/store/data/Run2018D/EGamma/NANOAOD/Nano1June2019-v1/70000/182713AD-F8AC-CD45-9BE0-83E8B770D633.root
p1
aVroot://cms-xrdr.private.lo:2094//xrd/store/data/Run2018D/EGamma/NANOAOD/Nano1June2019-v1/70000/1843F0BA-37AE-CF45-9AF0-7C1AF94756E7.root
p2
a.