(lp0
Vroot://cms-xrdr.private.lo:2094//xrd/store/data/Run2018C/EGamma/NANOAOD/Nano1June2019-v1/240000/9BF66A70-0AA5-8749-BD11-6AADEAF36809.root
p1
aVroot://cms-xrdr.private.lo:2094//xrd/store/data/Run2018C/EGamma/NANOAOD/Nano1June2019-v1/240000/A1178072-69E2-6042-8513-CB0FC599AD99.root
p2
a.