(lp0
Vroot://cms-xrdr.private.lo:2094//xrd/store/data/Run2018A/EGamma/NANOAOD/Nano1June2019-v1/40000/8E95ABD9-7FE3-F449-B229-CD89AFDB0CDC.root
p1
aVroot://cms-xrdr.private.lo:2094//xrd/store/data/Run2018A/EGamma/NANOAOD/Nano1June2019-v1/40000/9179AB2C-4B10-634F-8918-A3A86326C744.root
p2
a.