(lp0
Vroot://cms-xrdr.private.lo:2094//xrd/store/data/Run2018A/SingleMuon/NANOAOD/Nano1June2019-v1/40000/D4A80DCF-F0BC-A648-85A3-38D193C8C265.root
p1
aVroot://cms-xrdr.private.lo:2094//xrd/store/data/Run2018A/SingleMuon/NANOAOD/Nano1June2019-v1/40000/D67155D4-05B5-204A-A33C-8E2EDB60C4CB.root
p2
a.