(lp0
Vroot://cms-xrdr.private.lo:2094//xrd/store/data/Run2018C/EGamma/NANOAOD/Nano1June2019-v1/230000/67242F2B-BA8D-2943-AA38-C73D442760D8.root
p1
aVroot://cms-xrdr.private.lo:2094//xrd/store/data/Run2018C/EGamma/NANOAOD/Nano1June2019-v1/230000/6B30195D-89B5-AD4C-8B26-96EB3FE58C6F.root
p2
a.