(lp0
Vroot://cms-xrdr.private.lo:2094//xrd/store/data/Run2018B/DoubleMuon/NANOAOD/Nano1June2019-v1/40000/20FCA3B4-6778-7441-B63C-307A21C7C2F0.root
p1
aVroot://cms-xrdr.private.lo:2094//xrd/store/data/Run2018B/DoubleMuon/NANOAOD/Nano1June2019-v1/40000/2BF4B594-B3CD-0646-9444-C6FEF8FA7A73.root
p2
a.