(lp0
Vroot://cms-xrdr.private.lo:2094//xrd/store/data/Run2018A/EGamma/NANOAOD/Nano1June2019-v1/40000/0D3573AF-469F-1C45-957E-BFE132A07345.root
p1
aVroot://cms-xrdr.private.lo:2094//xrd/store/data/Run2018A/EGamma/NANOAOD/Nano1June2019-v1/40000/0F70C9C0-C689-A34E-AD3E-102EAA8DE126.root
p2
a.