(lp0
Vroot://cms-xrdr.private.lo:2094//xrd/store/data/Run2018C/SingleMuon/NANOAOD/Nano1June2019-v1/40000/479E21C9-9B56-DF4A-9983-6AFD41187BF2.root
p1
aVroot://cms-xrdr.private.lo:2094//xrd/store/data/Run2018C/SingleMuon/NANOAOD/Nano1June2019-v1/40000/58FE586C-E6DC-604C-8B1D-EE93449CAE12.root
p2
a.