(lp0
Vroot://cms-xrdr.private.lo:2094//xrd/store/data/Run2018A/SingleMuon/NANOAOD/Nano1June2019-v1/40000/B2233C1F-2A1D-9E4F-95F9-BD0D7FE6D739.root
p1
aVroot://cms-xrdr.private.lo:2094//xrd/store/data/Run2018A/SingleMuon/NANOAOD/Nano1June2019-v1/40000/B688932A-C9CA-B944-9772-C19B380BB818.root
p2
a.