(lp0
Vroot://cms-xrdr.private.lo:2094//xrd/store/data/Run2018D/EGamma/NANOAOD/Nano1June2019-v1/40000/112C9E53-B6F7-AF4E-8963-50DDD6C95033.root
p1
aVroot://cms-xrdr.private.lo:2094//xrd/store/data/Run2018D/EGamma/NANOAOD/Nano1June2019-v1/40000/11F5A712-6E53-BB4C-BF15-74D6C49BF4DD.root
p2
a.