(lp0
Vroot://cms-xrdr.private.lo:2094//xrd/store/data/Run2018D/EGamma/NANOAOD/Nano1June2019-v1/40000/62653E47-99AA-2C48-A53F-796D1D6FB0CE.root
p1
aVroot://cms-xrdr.private.lo:2094//xrd/store/data/Run2018D/EGamma/NANOAOD/Nano1June2019-v1/40000/63450183-1BBD-A14A-B70E-8AB168230C29.root
p2
a.