(lp0
Vroot://cms-xrdr.private.lo:2094//xrd/store/data/Run2018A/EGamma/NANOAOD/Nano1June2019-v1/40000/DD95DA20-05E5-D546-A4FA-C3D126B62EE5.root
p1
aVroot://cms-xrdr.private.lo:2094//xrd/store/data/Run2018A/EGamma/NANOAOD/Nano1June2019-v1/40000/DE8EF2A6-7D19-2843-8C86-D009B3C8A9AB.root
p2
a.