(lp0
Vroot://cms-xrdr.private.lo:2094//xrd/store/data/Run2018D/EGamma/NANOAOD/Nano1June2019-v1/40000/10A2B153-938E-B647-94E1-D82C9C741A04.root
p1
aVroot://cms-xrdr.private.lo:2094//xrd/store/data/Run2018D/EGamma/NANOAOD/Nano1June2019-v1/40000/10B31C0D-B054-694E-99AF-9F8E4D7485C2.root
p2
a.