(lp0
Vroot://cms-xrdr.private.lo:2094//xrd/store/data/Run2018D/EGamma/NANOAOD/Nano1June2019-v1/40000/8717B040-5F93-F84A-AFAB-852B34F6F1D6.root
p1
aVroot://cms-xrdr.private.lo:2094//xrd/store/data/Run2018D/EGamma/NANOAOD/Nano1June2019-v1/40000/876471AE-C1D7-5946-A52F-2452AFCCD41B.root
p2
a.