(lp0
Vroot://cms-xrdr.private.lo:2094//xrd/store/data/Run2018D/SingleMuon/NANOAOD/Nano1June2019-v1/40000/057689A2-AAA2-B24B-81C5-28BE3A70A3B2.root
p1
aVroot://cms-xrdr.private.lo:2094//xrd/store/data/Run2018D/SingleMuon/NANOAOD/Nano1June2019-v1/40000/05CA89E9-680E-C34F-9E0E-F10AA74AD372.root
p2
a.