(lp0
Vroot://cms-xrdr.private.lo:2094//xrd/store/data/Run2018D/SingleMuon/NANOAOD/Nano1June2019-v1/40000/C126EF04-FBAD-D84E-B1D4-F59C03D74927.root
p1
aVroot://cms-xrdr.private.lo:2094//xrd/store/data/Run2018D/SingleMuon/NANOAOD/Nano1June2019-v1/40000/C1459F0B-AED3-2E45-9B2E-BE7A40A57713.root
p2
a.