(lp0
Vroot://cms-xrdr.private.lo:2094//xrd/store/data/Run2018D/EGamma/NANOAOD/Nano1June2019-v1/70000/259EE735-3A3A-2D43-9FCC-15F9ACD90673.root
p1
aVroot://cms-xrdr.private.lo:2094//xrd/store/data/Run2018D/EGamma/NANOAOD/Nano1June2019-v1/70000/268B0F34-D021-7C44-9487-86F96F1849B7.root
p2
a.