(lp0
Vroot://cms-xrdr.private.lo:2094//xrd/store/data/Run2018A/EGamma/NANOAOD/Nano1June2019-v1/40000/67DBAB87-077B-4E43-AED8-1B4850240E7A.root
p1
aVroot://cms-xrdr.private.lo:2094//xrd/store/data/Run2018A/EGamma/NANOAOD/Nano1June2019-v1/40000/6EED40EC-55C2-374C-87D1-3018923F0F48.root
p2
a.