(lp0
Vroot://cms-xrdr.private.lo:2094//xrd/store/data/Run2018B/EGamma/NANOAOD/Nano1June2019-v1/40000/7F32D25F-AA5D-8C40-A21E-7938B54DADCF.root
p1
aVroot://cms-xrdr.private.lo:2094//xrd/store/data/Run2018B/EGamma/NANOAOD/Nano1June2019-v1/40000/81C9A40B-B6AA-6D42-9564-A9498FB4526A.root
p2
a.