(lp0
Vroot://cms-xrdr.private.lo:2094//xrd/store/data/Run2018B/EGamma/NANOAOD/Nano1June2019-v1/40000/B4DC7FAD-7404-254D-9974-D10D040A2909.root
p1
aVroot://cms-xrdr.private.lo:2094//xrd/store/data/Run2018B/EGamma/NANOAOD/Nano1June2019-v1/40000/C9A8F676-4EEE-684E-B36D-8535920AB567.root
p2
a.