(lp0
Vroot://cms-xrdr.private.lo:2094//xrd/store/data/Run2018A/SingleMuon/NANOAOD/Nano1June2019-v1/40000/400D836F-782D-D542-99CA-A75E18747023.root
p1
aVroot://cms-xrdr.private.lo:2094//xrd/store/data/Run2018A/SingleMuon/NANOAOD/Nano1June2019-v1/40000/449BA966-6B34-9C4C-8BFD-E0434649B71C.root
p2
a.