(lp0
Vroot://cms-xrdr.private.lo:2094//xrd/store/data/Run2018A/SingleMuon/NANOAOD/Nano1June2019-v1/40000/F462F54F-865A-0F41-ACDE-42FCA6236806.root
p1
aVroot://cms-xrdr.private.lo:2094//xrd/store/data/Run2018A/SingleMuon/NANOAOD/Nano1June2019-v1/40000/F50E059B-CCDD-BC42-BFAC-9DFDD1FE8E7B.root
p2
a.