(lp0
Vroot://cms-xrdr.private.lo:2094//xrd/store/data/Run2018A/MuonEG/NANOAOD/Nano1June2019-v1/40000/3D875CE7-9EF3-894E-89D0-C71B47937B83.root
p1
aVroot://cms-xrdr.private.lo:2094//xrd/store/data/Run2018A/MuonEG/NANOAOD/Nano1June2019-v1/40000/4E8BE67C-ECB0-6049-BF5E-F3775D3EB71E.root
p2
a.