(lp0
Vroot://cms-xrdr.private.lo:2094//xrd/store/data/Run2018A/EGamma/NANOAOD/Nano1June2019-v1/40000/F162058B-62EF-454C-AED9-A503AE1FACAC.root
p1
aVroot://cms-xrdr.private.lo:2094//xrd/store/data/Run2018A/EGamma/NANOAOD/Nano1June2019-v1/40000/F3CB723A-691F-7741-B84A-C41D53C2A7D4.root
p2
a.