(lp0
Vroot://cms-xrdr.private.lo:2094//xrd/store/data/Run2018A/SingleMuon/NANOAOD/Nano1June2019-v1/40000/C0C5207E-CFC7-DF4B-9750-8CFD973A1494.root
p1
aVroot://cms-xrdr.private.lo:2094//xrd/store/data/Run2018A/SingleMuon/NANOAOD/Nano1June2019-v1/40000/C0F502B1-D537-644A-909C-23080BBE8F51.root
p2
a.