(lp0
Vroot://cms-xrdr.private.lo:2094//xrd/store/data/Run2018D/SingleMuon/NANOAOD/Nano1June2019-v1/40000/1E7B48A2-4AD7-324D-985C-93CC0719D4B9.root
p1
aVroot://cms-xrdr.private.lo:2094//xrd/store/data/Run2018D/SingleMuon/NANOAOD/Nano1June2019-v1/40000/1F5FD83A-0BF1-3E46-B4F7-288569988C2C.root
p2
a.