(lp0
Vroot://cms-xrdr.private.lo:2094//xrd/store/data/Run2018D/SingleMuon/NANOAOD/Nano1June2019-v1/40000/D15B968B-32A8-1840-B4A5-058F1A86F682.root
p1
aVroot://cms-xrdr.private.lo:2094//xrd/store/data/Run2018D/SingleMuon/NANOAOD/Nano1June2019-v1/40000/D2B7AE3C-BB0B-D448-B53B-C0F6FA6905B5.root
p2
a.