(lp0
Vroot://cms-xrdr.private.lo:2094//xrd/store/data/Run2018C/SingleMuon/NANOAOD/Nano1June2019-v1/40000/3F617DDD-A587-0B46-B7E0-4C65BFB8F404.root
p1
aVroot://cms-xrdr.private.lo:2094//xrd/store/data/Run2018C/SingleMuon/NANOAOD/Nano1June2019-v1/40000/3FFC67CC-4DA3-554C-BD78-9BA5B43F58B9.root
p2
a.