(lp0
Vroot://cms-xrdr.private.lo:2094//xrd/store/data/Run2018D/SingleMuon/NANOAOD/Nano1June2019-v1/40000/C33DA2E8-4B3C-DE44-90A1-2BDB7199AD6E.root
p1
aVroot://cms-xrdr.private.lo:2094//xrd/store/data/Run2018D/SingleMuon/NANOAOD/Nano1June2019-v1/40000/C54D362A-C69D-B14D-930A-C96ABD031A84.root
p2
a.