(lp0
Vroot://cms-xrdr.private.lo:2094//xrd/store/data/Run2018D/EGamma/NANOAOD/Nano1June2019-v1/70000/1D43E1FC-FA0D-EC40-8A3C-63FF8D5E96D5.root
p1
aVroot://cms-xrdr.private.lo:2094//xrd/store/data/Run2018D/EGamma/NANOAOD/Nano1June2019-v1/70000/1D72570D-8865-BA4E-811C-B357B632A438.root
p2
a.