(lp0
Vroot://cms-xrdr.private.lo:2094//xrd/store/data/Run2018A/DoubleMuon/NANOAOD/Nano1June2019-v1/60000/178BF402-503A-DD40-B383-049EFC9A4FB1.root
p1
aVroot://cms-xrdr.private.lo:2094//xrd/store/data/Run2018A/DoubleMuon/NANOAOD/Nano1June2019-v1/60000/1B1DB546-D8F7-1E4B-A872-1AA95FB9E7CA.root
p2
a.