(lp0
Vroot://cms-xrdr.private.lo:2094//xrd/store/data/Run2018A/EGamma/NANOAOD/Nano1June2019-v1/40000/21EED3E1-F614-E54D-8F4C-A1D04EAE7B51.root
p1
aVroot://cms-xrdr.private.lo:2094//xrd/store/data/Run2018A/EGamma/NANOAOD/Nano1June2019-v1/40000/22191D87-46FC-3D4D-848A-AC326107AFD3.root
p2
a.