(lp0
Vroot://cms-xrdr.private.lo:2094//xrd/store/data/Run2018D/SingleMuon/NANOAOD/Nano1June2019-v1/40000/42982FB1-75F8-7542-ADD6-3BDF2A953C14.root
p1
aVroot://cms-xrdr.private.lo:2094//xrd/store/data/Run2018D/SingleMuon/NANOAOD/Nano1June2019-v1/40000/42DB9739-77E9-8A41-A7F6-EF536DC36151.root
p2
a.