(lp0
Vroot://cms-xrdr.private.lo:2094//xrd/store/data/Run2018C/SingleMuon/NANOAOD/Nano1June2019-v1/40000/96761CE4-37A7-D649-9C6C-2CD4F61BBBF6.root
p1
aVroot://cms-xrdr.private.lo:2094//xrd/store/data/Run2018C/SingleMuon/NANOAOD/Nano1June2019-v1/40000/9C9DACD6-1065-E840-917E-66DCA62CD01B.root
p2
a.