(lp0
Vroot://cms-xrdr.private.lo:2094//xrd/store/data/Run2018C/EGamma/NANOAOD/Nano1June2019-v1/230000/2ECA8FA2-313C-DF4F-B7D1-9A5E4D6C5B42.root
p1
aVroot://cms-xrdr.private.lo:2094//xrd/store/data/Run2018C/EGamma/NANOAOD/Nano1June2019-v1/230000/33B206B1-AAD0-F442-8C54-C42CFB9004C5.root
p2
a.