(lp0
Vroot://cms-xrdr.private.lo:2094//xrd/store/data/Run2018D/EGamma/NANOAOD/Nano1June2019-v1/40000/0D5E2772-012C-914F-9A35-214C505D2072.root
p1
aVroot://cms-xrdr.private.lo:2094//xrd/store/data/Run2018D/EGamma/NANOAOD/Nano1June2019-v1/40000/0E5E802C-BEC5-7844-9A08-7A9BCB8162EF.root
p2
a.