(lp0
Vroot://cms-xrdr.private.lo:2094//xrd/store/data/Run2018A/DoubleMuon/NANOAOD/Nano1June2019-v1/60000/11ABA0C1-62F4-D541-B602-26CF8725E6B6.root
p1
aVroot://cms-xrdr.private.lo:2094//xrd/store/data/Run2018A/DoubleMuon/NANOAOD/Nano1June2019-v1/60000/1664CDEE-0E67-C247-8B2A-84BF29F41F9C.root
p2
a.