(lp0
Vroot://cms-xrdr.private.lo:2094//xrd/store/data/Run2018D/SingleMuon/NANOAOD/Nano1June2019-v1/40000/AE8F1799-3FFF-F148-B923-2E38C8CE2817.root
p1
aVroot://cms-xrdr.private.lo:2094//xrd/store/data/Run2018D/SingleMuon/NANOAOD/Nano1June2019-v1/40000/AEDB195D-E412-2648-AD2F-FB69FF4AE99E.root
p2
a.