(lp0
Vroot://cms-xrdr.private.lo:2094//xrd/store/data/Run2018D/SingleMuon/NANOAOD/Nano1June2019-v1/40000/48E3CBB1-F6EC-8C44-89F1-DCD0DDA373E8.root
p1
aVroot://cms-xrdr.private.lo:2094//xrd/store/data/Run2018D/SingleMuon/NANOAOD/Nano1June2019-v1/40000/4AE6718F-9818-484C-8791-5680BA48D33E.root
p2
a.