(lp0
Vroot://cms-xrdr.private.lo:2094//xrd/store/data/Run2018B/DoubleMuon/NANOAOD/Nano1June2019-v1/40000/6F531C39-03E8-2B4A-9271-AD3D3B49BCD0.root
p1
aVroot://cms-xrdr.private.lo:2094//xrd/store/data/Run2018B/DoubleMuon/NANOAOD/Nano1June2019-v1/40000/762FD302-B209-224F-87AE-194DD92DFB82.root
p2
a.