(lp0
Vroot://cms-xrdr.private.lo:2094//xrd/store/data/Run2018B/MuonEG/NANOAOD/Nano1June2019-v1/40000/98C46867-05F7-F043-9FF7-7862704CE0B8.root
p1
aVroot://cms-xrdr.private.lo:2094//xrd/store/data/Run2018B/MuonEG/NANOAOD/Nano1June2019-v1/40000/BAAFE1E0-B81A-004B-9B76-2614D32C2435.root
p2
a.