(lp0
Vroot://cms-xrdr.private.lo:2094//xrd/store/data/Run2018C/EGamma/NANOAOD/Nano1June2019-v1/240000/04D4AF6B-278A-BC47-B991-55C9E6F693B9.root
p1
aVroot://cms-xrdr.private.lo:2094//xrd/store/data/Run2018C/EGamma/NANOAOD/Nano1June2019-v1/240000/0550B150-0B9C-9845-B3CA-17FBB01804DA.root
p2
a.