(lp0
Vroot://cms-xrdr.private.lo:2094//xrd/store/data/Run2018B/SingleMuon/NANOAOD/Nano1June2019-v1/40000/183FA694-98BB-CB4A-B575-1493EAC9B1B4.root
p1
aVroot://cms-xrdr.private.lo:2094//xrd/store/data/Run2018B/SingleMuon/NANOAOD/Nano1June2019-v1/40000/19C09986-46CE-3A44-8DFE-FACB79229C7A.root
p2
a.