(lp0
Vroot://cms-xrdr.private.lo:2094//xrd/store/data/Run2018B/EGamma/NANOAOD/Nano1June2019-v1/40000/8AF75464-0C03-824D-9DE7-C03EF1A13791.root
p1
aVroot://cms-xrdr.private.lo:2094//xrd/store/data/Run2018B/EGamma/NANOAOD/Nano1June2019-v1/40000/8BC661C4-FCB4-5D48-AB38-CEDF2CEA93B9.root
p2
a.