(lp0
Vroot://cms-xrdr.private.lo:2094//xrd/store/mc/RunIISummer16NanoAODv7/W3JetsToLNu_TuneCUETP8M1_13TeV-madgraphMLM-pythia8/NANOAODSIM/PUMoriond17_Nano02Apr2020_102X_mcRun2_asymptotic_v8-v1/110000/FB0F15C6-7A71-554F-8558-8FE9B6013973.root
p1
a.