(lp0
Vroot://cms-xrdr.private.lo:2094//xrd/store/mc/RunIIAutumn18NanoAODv7/GluGluToHHTo2B2VTo2L2Nu_node_SM_TuneCP5_PSWeights_13TeV-madgraph-pythia8/NANOAODSIM/Nano02Apr2020_102X_upgrade2018_realistic_v21-v1/260000/800190D8-C654-8548-91CE-9A317DB8D0A2.root
p1
a.