(lp0
Vroot://cms-xrdr.private.lo:2094//xrd/store/mc/RunIIAutumn18NanoAODv7/GluGluToHHTo2B2VTo2L2Nu_node_SM_TuneCP5_PSWeights_13TeV-madgraph-pythia8/NANOAODSIM/Nano02Apr2020_102X_upgrade2018_realistic_v21-v1/110000/50A82A39-B4DB-794D-A722-20C74AD25416.root
p1
aVroot://cms-xrdr.private.lo:2094//xrd/store/mc/RunIIAutumn18NanoAODv7/GluGluToHHTo2B2VTo2L2Nu_node_SM_TuneCP5_PSWeights_13TeV-madgraph-pythia8/NANOAODSIM/Nano02Apr2020_102X_upgrade2018_realistic_v21-v1/120000/1DC1E8EF-B7D9-9C48-92B5-EE14557BD8A1.root
p2
aVroot://cms-xrdr.private.lo:2094//xrd/store/mc/RunIIAutumn18NanoAODv7/GluGluToHHTo2B2VTo2L2Nu_node_SM_TuneCP5_PSWeights_13TeV-madgraph-pythia8/NANOAODSIM/Nano02Apr2020_102X_upgrade2018_realistic_v21-v1/120000/5976729F-96C0-174E-9E88-F76379ED6F0F.root
p3
aVroot://cms-xrdr.private.lo:2094//xrd/store/mc/RunIIAutumn18NanoAODv7/GluGluToHHTo2B2VTo2L2Nu_node_SM_TuneCP5_PSWeights_13TeV-madgraph-pythia8/NANOAODSIM/Nano02Apr2020_102X_upgrade2018_realistic_v21-v1/120000/B3456819-5134-794D-BEA1-D988D2DD9F85.root
p4
a.