(lp0
Vroot://cms-xrdr.private.lo:2094//xrd/store/mc/RunIIAutumn18NanoAODv7/ST_s-channel_4f_leptonDecays_TuneCP5_13TeV-amcatnlo-pythia8/NANOAODSIM/Nano02Apr2020_102X_upgrade2018_realistic_v21-v1/70000/2001B592-1389-5241-AC11-ACDD7B3AD74C.root
p1
aVroot://cms-xrdr.private.lo:2094//xrd/store/mc/RunIIAutumn18NanoAODv7/ST_s-channel_4f_leptonDecays_TuneCP5_13TeV-amcatnlo-pythia8/NANOAODSIM/Nano02Apr2020_102X_upgrade2018_realistic_v21-v1/70000/3EE51438-F56C-BD46-AD4A-84C530562B6E.root
p2
aVroot://cms-xrdr.private.lo:2094//xrd/store/mc/RunIIAutumn18NanoAODv7/ST_s-channel_4f_leptonDecays_TuneCP5_13TeV-amcatnlo-pythia8/NANOAODSIM/Nano02Apr2020_102X_upgrade2018_realistic_v21-v1/70000/5186B142-D8B8-C94B-85A8-C42F97F1C1FF.root
p3
aVroot://cms-xrdr.private.lo:2094//xrd/store/mc/RunIIAutumn18NanoAODv7/ST_s-channel_4f_leptonDecays_TuneCP5_13TeV-amcatnlo-pythia8/NANOAODSIM/Nano02Apr2020_102X_upgrade2018_realistic_v21-v1/70000/52C53448-8591-B044-94DF-8ADCE56452F0.root
p4
a.