(lp0
Vroot://cms-xrdr.private.lo:2094//xrd/store/mc/RunIIAutumn18NanoAODv7/ST_s-channel_4f_leptonDecays_TuneCP5_13TeV-amcatnlo-pythia8/NANOAODSIM/Nano02Apr2020_102X_upgrade2018_realistic_v21-v1/70000/CBC907DE-CFDF-3C4F-95FA-A27C58962784.root
p1
aVroot://cms-xrdr.private.lo:2094//xrd/store/mc/RunIIAutumn18NanoAODv7/ST_s-channel_4f_leptonDecays_TuneCP5_13TeV-amcatnlo-pythia8/NANOAODSIM/Nano02Apr2020_102X_upgrade2018_realistic_v21-v1/70000/D8B0DD70-F83C-0542-A579-4A9F68C73680.root
p2
aVroot://cms-xrdr.private.lo:2094//xrd/store/mc/RunIIAutumn18NanoAODv7/ST_s-channel_4f_leptonDecays_TuneCP5_13TeV-amcatnlo-pythia8/NANOAODSIM/Nano02Apr2020_102X_upgrade2018_realistic_v21-v1/70000/F69F87F0-FB61-DA43-BA1B-10C7651059D6.root
p3
a.