(lp0
Vroot://cms-xrdr.private.lo:2094//xrd/store/mc/RunIIAutumn18NanoAODv7/ST_tW_top_5f_inclusiveDecays_TuneCP5_13TeV-powheg-pythia8/NANOAODSIM/Nano02Apr2020_102X_upgrade2018_realistic_v21_ext1-v1/60000/C720EBDB-F75C-4F48-8DF5-52ED3A80C7B8.root
p1
aVroot://cms-xrdr.private.lo:2094//xrd/store/mc/RunIIAutumn18NanoAODv7/ST_tW_top_5f_inclusiveDecays_TuneCP5_13TeV-powheg-pythia8/NANOAODSIM/Nano02Apr2020_102X_upgrade2018_realistic_v21_ext1-v1/60000/DF69049B-4E5A-F346-A7A3-C3FC5FFEF25A.root
p2
aVroot://cms-xrdr.private.lo:2094//xrd/store/mc/RunIIAutumn18NanoAODv7/ST_tW_top_5f_inclusiveDecays_TuneCP5_13TeV-powheg-pythia8/NANOAODSIM/Nano02Apr2020_102X_upgrade2018_realistic_v21_ext1-v1/60000/FE0CEDE0-6716-DE4A-A5C9-D1C126E7A2F1.root
p3
a.