(lp0
Vroot://cms-xrdr.private.lo:2094//xrd/store/mc/RunIIAutumn18NanoAODv7/ST_tW_antitop_5f_inclusiveDecays_TuneCP5_13TeV-powheg-pythia8/NANOAODSIM/Nano02Apr2020_102X_upgrade2018_realistic_v21_ext1-v1/60000/137CFFF4-B5BB-8043-B65D-8270000F4E99.root
p1
aVroot://cms-xrdr.private.lo:2094//xrd/store/mc/RunIIAutumn18NanoAODv7/ST_tW_antitop_5f_inclusiveDecays_TuneCP5_13TeV-powheg-pythia8/NANOAODSIM/Nano02Apr2020_102X_upgrade2018_realistic_v21_ext1-v1/60000/19BAAA83-BC63-6E4D-A728-1999DADE5DCA.root
p2
aVroot://cms-xrdr.private.lo:2094//xrd/store/mc/RunIIAutumn18NanoAODv7/ST_tW_antitop_5f_inclusiveDecays_TuneCP5_13TeV-powheg-pythia8/NANOAODSIM/Nano02Apr2020_102X_upgrade2018_realistic_v21_ext1-v1/60000/24CF951E-3BFB-7042-931F-5694B452314D.root
p3
aVroot://cms-xrdr.private.lo:2094//xrd/store/mc/RunIIAutumn18NanoAODv7/ST_tW_antitop_5f_inclusiveDecays_TuneCP5_13TeV-powheg-pythia8/NANOAODSIM/Nano02Apr2020_102X_upgrade2018_realistic_v21_ext1-v1/60000/434CB982-C5FA-8A47-B6CC-4F044CE3F5B9.root
p4
a.