(lp0
Vroot://cms-xrdr.private.lo:2094//xrd/store/mc/RunIIAutumn18NanoAODv7/ST_tW_antitop_5f_inclusiveDecays_TuneCP5_13TeV-powheg-pythia8/NANOAODSIM/Nano02Apr2020_102X_upgrade2018_realistic_v21_ext1-v1/60000/D9CF885C-70F1-FC45-9715-A9DD20235046.root
p1
a.