(lp0
Vroot://cms-xrdr.private.lo:2094//xrd/store/mc/RunIIAutumn18NanoAODv7/TTTo2L2Nu_TuneCP5_13TeV-powheg-pythia8/NANOAODSIM/Nano02Apr2020_102X_upgrade2018_realistic_v21-v1/60000/ACD731E8-852C-8B4C-8425-689969A106E3.root
p1
aVroot://cms-xrdr.private.lo:2094//xrd/store/mc/RunIIAutumn18NanoAODv7/TTTo2L2Nu_TuneCP5_13TeV-powheg-pythia8/NANOAODSIM/Nano02Apr2020_102X_upgrade2018_realistic_v21-v1/60000/ADD4917A-94B4-2D41-A14C-91E8F0AE0DF6.root
p2
aVroot://cms-xrdr.private.lo:2094//xrd/store/mc/RunIIAutumn18NanoAODv7/TTTo2L2Nu_TuneCP5_13TeV-powheg-pythia8/NANOAODSIM/Nano02Apr2020_102X_upgrade2018_realistic_v21-v1/60000/B10087DB-FBF5-FB42-9391-3942977F84C8.root
p3
aVroot://cms-xrdr.private.lo:2094//xrd/store/mc/RunIIAutumn18NanoAODv7/TTTo2L2Nu_TuneCP5_13TeV-powheg-pythia8/NANOAODSIM/Nano02Apr2020_102X_upgrade2018_realistic_v21-v1/60000/B9F2F517-CA85-3A4C-B245-539D0324FAAD.root
p4
a.