(lp0
Vroot://cms-xrdr.private.lo:2094//xrd/store/mc/RunIIAutumn18NanoAODv7/TTToHadronic_TuneCP5_13TeV-powheg-pythia8/NANOAODSIM/Nano02Apr2020_102X_upgrade2018_realistic_v21-v1/240000/5F5400B8-910B-2645-8EAB-5D8F4588A380.root
p1
aVroot://cms-xrdr.private.lo:2094//xrd/store/mc/RunIIAutumn18NanoAODv7/TTToHadronic_TuneCP5_13TeV-powheg-pythia8/NANOAODSIM/Nano02Apr2020_102X_upgrade2018_realistic_v21-v1/240000/65B51974-0A84-184E-95B7-2C1F7B6709E9.root
p2
aVroot://cms-xrdr.private.lo:2094//xrd/store/mc/RunIIAutumn18NanoAODv7/TTToHadronic_TuneCP5_13TeV-powheg-pythia8/NANOAODSIM/Nano02Apr2020_102X_upgrade2018_realistic_v21-v1/240000/66B2DEEC-AD9A-0048-8094-FA49E3E0F10B.root
p3
aVroot://cms-xrdr.private.lo:2094//xrd/store/mc/RunIIAutumn18NanoAODv7/TTToHadronic_TuneCP5_13TeV-powheg-pythia8/NANOAODSIM/Nano02Apr2020_102X_upgrade2018_realistic_v21-v1/240000/6BA62F06-0A90-8F48-96CA-22F1FFFBB2AC.root
p4
a.