(lp0
Vroot://cms-xrdr.private.lo:2094//xrd/store/mc/RunIIAutumn18NanoAODv7/TTToHadronic_TuneCP5_13TeV-powheg-pythia8/NANOAODSIM/Nano02Apr2020_102X_upgrade2018_realistic_v21-v1/20000/C4471AB1-EACA-D54F-A272-B1B63BF32443.root
p1
aVroot://cms-xrdr.private.lo:2094//xrd/store/mc/RunIIAutumn18NanoAODv7/TTToHadronic_TuneCP5_13TeV-powheg-pythia8/NANOAODSIM/Nano02Apr2020_102X_upgrade2018_realistic_v21-v1/20000/C9694614-350C-274A-AE76-4C930C032F40.root
p2
aVroot://cms-xrdr.private.lo:2094//xrd/store/mc/RunIIAutumn18NanoAODv7/TTToHadronic_TuneCP5_13TeV-powheg-pythia8/NANOAODSIM/Nano02Apr2020_102X_upgrade2018_realistic_v21-v1/20000/CA3ED32A-3333-8846-A311-D434BBDF75A7.root
p3
aVroot://cms-xrdr.private.lo:2094//xrd/store/mc/RunIIAutumn18NanoAODv7/TTToHadronic_TuneCP5_13TeV-powheg-pythia8/NANOAODSIM/Nano02Apr2020_102X_upgrade2018_realistic_v21-v1/20000/D15958FA-0E51-0B4A-81A6-9352ED2CFB54.root
p4
a.