(lp0
Vroot://cms-xrdr.private.lo:2094//xrd/store/mc/RunIIAutumn18NanoAODv7/TTToSemiLeptonic_TuneCP5_13TeV-powheg-pythia8/NANOAODSIM/Nano02Apr2020_102X_upgrade2018_realistic_v21-v1/60000/82BFD1BF-2EA7-194E-A75E-32173486E746.root
p1
aVroot://cms-xrdr.private.lo:2094//xrd/store/mc/RunIIAutumn18NanoAODv7/TTToSemiLeptonic_TuneCP5_13TeV-powheg-pythia8/NANOAODSIM/Nano02Apr2020_102X_upgrade2018_realistic_v21-v1/60000/8416FED8-8A05-034D-B866-86E70FA46277.root
p2
aVroot://cms-xrdr.private.lo:2094//xrd/store/mc/RunIIAutumn18NanoAODv7/TTToSemiLeptonic_TuneCP5_13TeV-powheg-pythia8/NANOAODSIM/Nano02Apr2020_102X_upgrade2018_realistic_v21-v1/60000/85F51B88-3939-0444-B4C0-703AFB5F20D8.root
p3
aVroot://cms-xrdr.private.lo:2094//xrd/store/mc/RunIIAutumn18NanoAODv7/TTToSemiLeptonic_TuneCP5_13TeV-powheg-pythia8/NANOAODSIM/Nano02Apr2020_102X_upgrade2018_realistic_v21-v1/60000/87B31FD0-7B06-C241-BA6B-EE3CC8E805E3.root
p4
a.