(lp0
Vroot://cms-xrdr.private.lo:2094//xrd/store/mc/RunIIAutumn18NanoAODv7/TTToSemiLeptonic_TuneCP5_13TeV-powheg-pythia8/NANOAODSIM/Nano02Apr2020_102X_upgrade2018_realistic_v21-v1/60000/4904F0E4-0674-094D-8CA5-6125D7D34BA4.root
p1
aVroot://cms-xrdr.private.lo:2094//xrd/store/mc/RunIIAutumn18NanoAODv7/TTToSemiLeptonic_TuneCP5_13TeV-powheg-pythia8/NANOAODSIM/Nano02Apr2020_102X_upgrade2018_realistic_v21-v1/60000/4A7C530C-32A9-2040-9549-C217443A84D5.root
p2
aVroot://cms-xrdr.private.lo:2094//xrd/store/mc/RunIIAutumn18NanoAODv7/TTToSemiLeptonic_TuneCP5_13TeV-powheg-pythia8/NANOAODSIM/Nano02Apr2020_102X_upgrade2018_realistic_v21-v1/60000/4F4C8E51-E36F-5847-827B-AB2FB6405A07.root
p3
aVroot://cms-xrdr.private.lo:2094//xrd/store/mc/RunIIAutumn18NanoAODv7/TTToSemiLeptonic_TuneCP5_13TeV-powheg-pythia8/NANOAODSIM/Nano02Apr2020_102X_upgrade2018_realistic_v21-v1/60000/52632CAF-AD5D-6348-90E5-66FE278CC04B.root
p4
a.