(lp0
Vroot://cms-xrdr.private.lo:2094//xrd/store/mc/RunIIAutumn18NanoAODv7/W1JetsToLNu_TuneCP5_13TeV-madgraphMLM-pythia8/NANOAODSIM/Nano02Apr2020_102X_upgrade2018_realistic_v21-v1/100000/9938F7C0-3E38-E141-AB49-BB0FDE636A7D.root
p1
aVroot://cms-xrdr.private.lo:2094//xrd/store/mc/RunIIAutumn18NanoAODv7/W1JetsToLNu_TuneCP5_13TeV-madgraphMLM-pythia8/NANOAODSIM/Nano02Apr2020_102X_upgrade2018_realistic_v21-v1/100000/AFB91077-73ED-C14F-966F-B913580F4AE0.root
p2
aVroot://cms-xrdr.private.lo:2094//xrd/store/mc/RunIIAutumn18NanoAODv7/W1JetsToLNu_TuneCP5_13TeV-madgraphMLM-pythia8/NANOAODSIM/Nano02Apr2020_102X_upgrade2018_realistic_v21-v1/100000/AFC67A96-B514-544D-BA74-A0DEB4C6E3C9.root
p3
aVroot://cms-xrdr.private.lo:2094//xrd/store/mc/RunIIAutumn18NanoAODv7/W1JetsToLNu_TuneCP5_13TeV-madgraphMLM-pythia8/NANOAODSIM/Nano02Apr2020_102X_upgrade2018_realistic_v21-v1/100000/C2BAAE0B-541A-BE4B-A061-927412F6BF0E.root
p4
a.