(lp0
Vroot://cms-xrdr.private.lo:2094//xrd/store/mc/RunIIAutumn18NanoAODv7/W1JetsToLNu_TuneCP5_13TeV-madgraphMLM-pythia8/NANOAODSIM/Nano02Apr2020_102X_upgrade2018_realistic_v21-v1/70000/0AF3C9FD-2B8B-0747-B9DC-7E21814D226A.root
p1
aVroot://cms-xrdr.private.lo:2094//xrd/store/mc/RunIIAutumn18NanoAODv7/W1JetsToLNu_TuneCP5_13TeV-madgraphMLM-pythia8/NANOAODSIM/Nano02Apr2020_102X_upgrade2018_realistic_v21-v1/70000/4E8CDADC-BE90-AA49-A0B7-2D76459D1C07.root
p2
aVroot://cms-xrdr.private.lo:2094//xrd/store/mc/RunIIAutumn18NanoAODv7/W1JetsToLNu_TuneCP5_13TeV-madgraphMLM-pythia8/NANOAODSIM/Nano02Apr2020_102X_upgrade2018_realistic_v21-v1/70000/5FCAC4F8-70F3-E548-9965-DA8438B77E8A.root
p3
aVroot://cms-xrdr.private.lo:2094//xrd/store/mc/RunIIAutumn18NanoAODv7/W1JetsToLNu_TuneCP5_13TeV-madgraphMLM-pythia8/NANOAODSIM/Nano02Apr2020_102X_upgrade2018_realistic_v21-v1/70000/65858040-574F-9A46-AF07-962C8783215A.root
p4
a.