(lp0
Vroot://cms-xrdr.private.lo:2094//xrd/store/mc/RunIIAutumn18NanoAODv7/W3JetsToLNu_TuneCP5_13TeV-madgraphMLM-pythia8/NANOAODSIM/Nano02Apr2020_102X_upgrade2018_realistic_v21-v1/70000/732671EA-10F8-D647-BBBA-C43A56211C69.root
p1
aVroot://cms-xrdr.private.lo:2094//xrd/store/mc/RunIIAutumn18NanoAODv7/W3JetsToLNu_TuneCP5_13TeV-madgraphMLM-pythia8/NANOAODSIM/Nano02Apr2020_102X_upgrade2018_realistic_v21-v1/70000/7CFFC42B-DA71-4C48-B69C-9A1987DAC1B8.root
p2
aVroot://cms-xrdr.private.lo:2094//xrd/store/mc/RunIIAutumn18NanoAODv7/W3JetsToLNu_TuneCP5_13TeV-madgraphMLM-pythia8/NANOAODSIM/Nano02Apr2020_102X_upgrade2018_realistic_v21-v1/70000/86B5C3C2-BCDD-304E-9525-8813D1298656.root
p3
aVroot://cms-xrdr.private.lo:2094//xrd/store/mc/RunIIAutumn18NanoAODv7/W3JetsToLNu_TuneCP5_13TeV-madgraphMLM-pythia8/NANOAODSIM/Nano02Apr2020_102X_upgrade2018_realistic_v21-v1/70000/8B47BE4D-ACA9-4049-95B5-1061D0DFEBD5.root
p4
a.