(lp0
Vroot://cms-xrdr.private.lo:2094//xrd/store/mc/RunIIAutumn18NanoAODv7/W4JetsToLNu_TuneCP5_13TeV-madgraphMLM-pythia8/NANOAODSIM/Nano02Apr2020_102X_upgrade2018_realistic_v21-v1/60000/0CDBDB2C-9C1A-8740-ABF3-C566DC99F3B8.root
p1
aVroot://cms-xrdr.private.lo:2094//xrd/store/mc/RunIIAutumn18NanoAODv7/W4JetsToLNu_TuneCP5_13TeV-madgraphMLM-pythia8/NANOAODSIM/Nano02Apr2020_102X_upgrade2018_realistic_v21-v1/60000/106A9AA7-A719-C446-AD4D-CC5E84CF9309.root
p2
aVroot://cms-xrdr.private.lo:2094//xrd/store/mc/RunIIAutumn18NanoAODv7/W4JetsToLNu_TuneCP5_13TeV-madgraphMLM-pythia8/NANOAODSIM/Nano02Apr2020_102X_upgrade2018_realistic_v21-v1/60000/4C0415E5-93A9-C046-8293-7A3B595D8693.root
p3
aVroot://cms-xrdr.private.lo:2094//xrd/store/mc/RunIIAutumn18NanoAODv7/W4JetsToLNu_TuneCP5_13TeV-madgraphMLM-pythia8/NANOAODSIM/Nano02Apr2020_102X_upgrade2018_realistic_v21-v1/60000/4C5291EB-B624-794A-ABB2-3110CD38BF9F.root
p4
a.