(lp0
Vroot://cms-xrdr.private.lo:2094//xrd/store/data/Run2016H/DoubleMuon/NANOAOD/Nano25Oct2019-v1/40000/6FEADFBB-DBE5-0148-BA3F-E7A9E199C971.root
p1
aVroot://cms-xrdr.private.lo:2094//xrd/store/data/Run2016H/DoubleMuon/NANOAOD/Nano25Oct2019-v1/40000/6FF6A5A6-DB0B-C64F-B229-012D2969FE93.root
p2
a.