(lp0
Vroot://cms-xrdr.private.lo:2094//xrd/store/data/Run2016G/DoubleMuon/NANOAOD/Nano25Oct2019-v1/240000/31F90C8B-9106-CF46-B00B-74389E93C7CD.root
p1
aVroot://cms-xrdr.private.lo:2094//xrd/store/data/Run2016G/DoubleMuon/NANOAOD/Nano25Oct2019-v1/240000/3CECD522-CF16-F344-8EC4-5710832CCB99.root
p2
aVroot://cms-xrdr.private.lo:2094//xrd/store/data/Run2016G/DoubleMuon/NANOAOD/Nano25Oct2019-v1/240000/3DC85A20-286C-1F4A-B370-4CA4559D5070.root
p3
aVroot://cms-xrdr.private.lo:2094//xrd/store/data/Run2016G/DoubleMuon/NANOAOD/Nano25Oct2019-v1/240000/3DEA0B8C-02BD-4543-9D20-5B6D691AA243.root
p4
a.