(lp0
Vroot://cms-xrdr.private.lo:2094//xrd/store/data/Run2016G/DoubleMuon/NANOAOD/Nano25Oct2019-v1/240000/74E53BD8-0B2E-9E45-B13E-CE1324E374B3.root
p1
aVroot://cms-xrdr.private.lo:2094//xrd/store/data/Run2016G/DoubleMuon/NANOAOD/Nano25Oct2019-v1/240000/7D2C0223-EECE-5649-BC85-4B87E23248EC.root
p2
a.