(lp0
Vroot://cms-xrdr.private.lo:2094//xrd/store/data/Run2016C/DoubleMuon/NANOAOD/Nano25Oct2019-v1/40000/10489321-D85A-7547-A2B8-0ADDAFB3D84C.root
p1
aVroot://cms-xrdr.private.lo:2094//xrd/store/data/Run2016C/DoubleMuon/NANOAOD/Nano25Oct2019-v1/40000/1182043B-96F2-764D-8C67-FF210C7F855F.root
p2
a.