(lp0
Vroot://cms-xrdr.private.lo:2094//xrd/store/data/Run2016G/DoubleMuon/NANOAOD/Nano25Oct2019-v1/40000/05A02A06-BEEF-DD48-83B3-A260907FF5E0.root
p1
aVroot://cms-xrdr.private.lo:2094//xrd/store/data/Run2016G/DoubleMuon/NANOAOD/Nano25Oct2019-v1/40000/15C4527C-75A6-6E43-B43F-740237E2F29F.root
p2
aVroot://cms-xrdr.private.lo:2094//xrd/store/data/Run2016G/DoubleMuon/NANOAOD/Nano25Oct2019-v1/40000/2365E906-F760-D145-8780-9CCDA481632B.root
p3
aVroot://cms-xrdr.private.lo:2094//xrd/store/data/Run2016G/DoubleMuon/NANOAOD/Nano25Oct2019-v1/40000/A0E55D59-D9CD-6545-B7EC-6C2373BCA0C8.root
p4
aVroot://cms-xrdr.private.lo:2094//xrd/store/data/Run2016G/DoubleMuon/NANOAOD/Nano25Oct2019-v1/40000/CA57196F-4208-2B4B-9189-E74F9AF9F0F2.root
p5
a.