(lp0
Vroot://cms-xrdr.private.lo:2094//xrd/store/data/Run2016G/DoubleMuon/NANOAOD/Nano25Oct2019-v1/240000/B064E96C-EC1E-5D49-BB17-6EC34B3F9CC8.root
p1
aVroot://cms-xrdr.private.lo:2094//xrd/store/data/Run2016G/DoubleMuon/NANOAOD/Nano25Oct2019-v1/240000/BEDD7AF7-3CD9-5245-BF4C-725EBC5ED204.root
p2
a.