(lp0
Vroot://cms-xrdr.private.lo:2094//xrd/store/mc/RunIISummer16NanoAODv7/TTTo2L2Nu_TuneCP5_PSweights_13TeV-powheg-pythia8/NANOAODSIM/PUMoriond17_Nano02Apr2020_102X_mcRun2_asymptotic_v8-v1/270000/0299641C-13D8-CE4F-ADC8-FF2B5003D566.root
p1
aVroot://cms-xrdr.private.lo:2094//xrd/store/mc/RunIISummer16NanoAODv7/TTTo2L2Nu_TuneCP5_PSweights_13TeV-powheg-pythia8/NANOAODSIM/PUMoriond17_Nano02Apr2020_102X_mcRun2_asymptotic_v8-v1/270000/05C0E006-E45F-424C-9455-711A8D595D98.root
p2
aVroot://cms-xrdr.private.lo:2094//xrd/store/mc/RunIISummer16NanoAODv7/TTTo2L2Nu_TuneCP5_PSweights_13TeV-powheg-pythia8/NANOAODSIM/PUMoriond17_Nano02Apr2020_102X_mcRun2_asymptotic_v8-v1/270000/225EEE73-C34F-BC4A-989C-E30CF8376912.root
p3
aVroot://cms-xrdr.private.lo:2094//xrd/store/mc/RunIISummer16NanoAODv7/TTTo2L2Nu_TuneCP5_PSweights_13TeV-powheg-pythia8/NANOAODSIM/PUMoriond17_Nano02Apr2020_102X_mcRun2_asymptotic_v8-v1/270000/24F65DC8-B85E-4342-A98B-30F8C9FC94FB.root
p4
aVroot://cms-xrdr.private.lo:2094//xrd/store/mc/RunIISummer16NanoAODv7/TTTo2L2Nu_TuneCP5_PSweights_13TeV-powheg-pythia8/NANOAODSIM/PUMoriond17_Nano02Apr2020_102X_mcRun2_asymptotic_v8-v1/270000/3C546D01-0C0D-8B44-82E5-C207D0CECA29.root
p5
aVroot://cms-xrdr.private.lo:2094//xrd/store/mc/RunIISummer16NanoAODv7/TTTo2L2Nu_TuneCP5_PSweights_13TeV-powheg-pythia8/NANOAODSIM/PUMoriond17_Nano02Apr2020_102X_mcRun2_asymptotic_v8-v1/270000/663656C4-0279-6044-A320-389B91C6EBD6.root
p6
aVroot://cms-xrdr.private.lo:2094//xrd/store/mc/RunIISummer16NanoAODv7/TTTo2L2Nu_TuneCP5_PSweights_13TeV-powheg-pythia8/NANOAODSIM/PUMoriond17_Nano02Apr2020_102X_mcRun2_asymptotic_v8-v1/270000/6AFCDB15-DAD4-5A4D-AF9E-69B7275E7E7E.root
p7
aVroot://cms-xrdr.private.lo:2094//xrd/store/mc/RunIISummer16NanoAODv7/TTTo2L2Nu_TuneCP5_PSweights_13TeV-powheg-pythia8/NANOAODSIM/PUMoriond17_Nano02Apr2020_102X_mcRun2_asymptotic_v8-v1/270000/6DA52E91-ECE7-B647-A44C-4DAFA995393A.root
p8
aVroot://cms-xrdr.private.lo:2094//xrd/store/mc/RunIISummer16NanoAODv7/TTTo2L2Nu_TuneCP5_PSweights_13TeV-powheg-pythia8/NANOAODSIM/PUMoriond17_Nano02Apr2020_102X_mcRun2_asymptotic_v8-v1/270000/7250AA66-1947-F34A-A863-6865A53FFBC0.root
p9
aVroot://cms-xrdr.private.lo:2094//xrd/store/mc/RunIISummer16NanoAODv7/TTTo2L2Nu_TuneCP5_PSweights_13TeV-powheg-pythia8/NANOAODSIM/PUMoriond17_Nano02Apr2020_102X_mcRun2_asymptotic_v8-v1/270000/857DF6DD-519E-A24E-B85F-FBB30E7C8672.root
p10
aVroot://cms-xrdr.private.lo:2094//xrd/store/mc/RunIISummer16NanoAODv7/TTTo2L2Nu_TuneCP5_PSweights_13TeV-powheg-pythia8/NANOAODSIM/PUMoriond17_Nano02Apr2020_102X_mcRun2_asymptotic_v8-v1/270000/995DB516-D128-E94D-AE6E-4A659D79CCF3.root
p11
aVroot://cms-xrdr.private.lo:2094//xrd/store/mc/RunIISummer16NanoAODv7/TTTo2L2Nu_TuneCP5_PSweights_13TeV-powheg-pythia8/NANOAODSIM/PUMoriond17_Nano02Apr2020_102X_mcRun2_asymptotic_v8-v1/270000/9F4AE4D3-DBA9-0645-94E1-DA94543E1EC5.root
p12
aVroot://cms-xrdr.private.lo:2094//xrd/store/mc/RunIISummer16NanoAODv7/TTTo2L2Nu_TuneCP5_PSweights_13TeV-powheg-pythia8/NANOAODSIM/PUMoriond17_Nano02Apr2020_102X_mcRun2_asymptotic_v8-v1/270000/A5203B02-3F8E-C249-9BB2-BA0943C0A6C5.root
p13
aVroot://cms-xrdr.private.lo:2094//xrd/store/mc/RunIISummer16NanoAODv7/TTTo2L2Nu_TuneCP5_PSweights_13TeV-powheg-pythia8/NANOAODSIM/PUMoriond17_Nano02Apr2020_102X_mcRun2_asymptotic_v8-v1/270000/AD5E55F9-282A-4742-97F3-9354A6E98173.root
p14
aVroot://cms-xrdr.private.lo:2094//xrd/store/mc/RunIISummer16NanoAODv7/TTTo2L2Nu_TuneCP5_PSweights_13TeV-powheg-pythia8/NANOAODSIM/PUMoriond17_Nano02Apr2020_102X_mcRun2_asymptotic_v8-v1/270000/C6E3BFC5-F689-514D-A312-EE96FC857D58.root
p15
aVroot://cms-xrdr.private.lo:2094//xrd/store/mc/RunIISummer16NanoAODv7/TTTo2L2Nu_TuneCP5_PSweights_13TeV-powheg-pythia8/NANOAODSIM/PUMoriond17_Nano02Apr2020_102X_mcRun2_asymptotic_v8-v1/270000/CDA790F5-9E29-0A42-A960-4D9B4A60615E.root
p16
aVroot://cms-xrdr.private.lo:2094//xrd/store/mc/RunIISummer16NanoAODv7/TTTo2L2Nu_TuneCP5_PSweights_13TeV-powheg-pythia8/NANOAODSIM/PUMoriond17_Nano02Apr2020_102X_mcRun2_asymptotic_v8-v1/270000/D31CE739-4512-9048-A910-FE3F51A26898.root
p17
aVroot://cms-xrdr.private.lo:2094//xrd/store/mc/RunIISummer16NanoAODv7/TTTo2L2Nu_TuneCP5_PSweights_13TeV-powheg-pythia8/NANOAODSIM/PUMoriond17_Nano02Apr2020_102X_mcRun2_asymptotic_v8-v1/270000/D804F878-7E56-8046-A637-C21D9A82D4B1.root
p18
aVroot://cms-xrdr.private.lo:2094//xrd/store/mc/RunIISummer16NanoAODv7/TTTo2L2Nu_TuneCP5_PSweights_13TeV-powheg-pythia8/NANOAODSIM/PUMoriond17_Nano02Apr2020_102X_mcRun2_asymptotic_v8-v1/270000/DF8F11A0-C8A3-9D4D-B375-2B7871582759.root
p19
aVroot://cms-xrdr.private.lo:2094//xrd/store/mc/RunIISummer16NanoAODv7/TTTo2L2Nu_TuneCP5_PSweights_13TeV-powheg-pythia8/NANOAODSIM/PUMoriond17_Nano02Apr2020_102X_mcRun2_asymptotic_v8-v1/270000/E1CCE110-7BCF-8A4A-9505-F0074784EE6E.root
p20
a.