(lp0
Vroot://cms-xrdr.private.lo:2094//xrd/store/mc/RunIISummer16NanoAODv7/TTToSemiLeptonic_TuneCP5_PSweights_13TeV-powheg-pythia8/NANOAODSIM/PUMoriond17_Nano02Apr2020_102X_mcRun2_asymptotic_v8-v1/270000/0956C6B5-7FD7-724F-B92D-DA7F6913EED4.root
p1
aVroot://cms-xrdr.private.lo:2094//xrd/store/mc/RunIISummer16NanoAODv7/TTToSemiLeptonic_TuneCP5_PSweights_13TeV-powheg-pythia8/NANOAODSIM/PUMoriond17_Nano02Apr2020_102X_mcRun2_asymptotic_v8-v1/270000/0A6E61B8-5B1D-8949-BAB6-2A79EAECE6E0.root
p2
aVroot://cms-xrdr.private.lo:2094//xrd/store/mc/RunIISummer16NanoAODv7/TTToSemiLeptonic_TuneCP5_PSweights_13TeV-powheg-pythia8/NANOAODSIM/PUMoriond17_Nano02Apr2020_102X_mcRun2_asymptotic_v8-v1/270000/0DF3BC25-E773-FC4D-9B12-1147917F6D17.root
p3
aVroot://cms-xrdr.private.lo:2094//xrd/store/mc/RunIISummer16NanoAODv7/TTToSemiLeptonic_TuneCP5_PSweights_13TeV-powheg-pythia8/NANOAODSIM/PUMoriond17_Nano02Apr2020_102X_mcRun2_asymptotic_v8-v1/270000/11407F97-8214-DD4C-9273-94CB87AB097E.root
p4
aVroot://cms-xrdr.private.lo:2094//xrd/store/mc/RunIISummer16NanoAODv7/TTToSemiLeptonic_TuneCP5_PSweights_13TeV-powheg-pythia8/NANOAODSIM/PUMoriond17_Nano02Apr2020_102X_mcRun2_asymptotic_v8-v1/270000/210A0667-3E8E-0540-86FA-4635DE183103.root
p5
aVroot://cms-xrdr.private.lo:2094//xrd/store/mc/RunIISummer16NanoAODv7/TTToSemiLeptonic_TuneCP5_PSweights_13TeV-powheg-pythia8/NANOAODSIM/PUMoriond17_Nano02Apr2020_102X_mcRun2_asymptotic_v8-v1/270000/32576C65-9B5C-F24B-95B2-35D30D4ED3CB.root
p6
aVroot://cms-xrdr.private.lo:2094//xrd/store/mc/RunIISummer16NanoAODv7/TTToSemiLeptonic_TuneCP5_PSweights_13TeV-powheg-pythia8/NANOAODSIM/PUMoriond17_Nano02Apr2020_102X_mcRun2_asymptotic_v8-v1/270000/34015F40-1755-A94A-BA5D-ADD37053990E.root
p7
aVroot://cms-xrdr.private.lo:2094//xrd/store/mc/RunIISummer16NanoAODv7/TTToSemiLeptonic_TuneCP5_PSweights_13TeV-powheg-pythia8/NANOAODSIM/PUMoriond17_Nano02Apr2020_102X_mcRun2_asymptotic_v8-v1/270000/3CD16A11-6159-7E47-8273-DCF9488E97C0.root
p8
aVroot://cms-xrdr.private.lo:2094//xrd/store/mc/RunIISummer16NanoAODv7/TTToSemiLeptonic_TuneCP5_PSweights_13TeV-powheg-pythia8/NANOAODSIM/PUMoriond17_Nano02Apr2020_102X_mcRun2_asymptotic_v8-v1/270000/4005CAD6-A562-5A40-8547-89FB97C43FD2.root
p9
aVroot://cms-xrdr.private.lo:2094//xrd/store/mc/RunIISummer16NanoAODv7/TTToSemiLeptonic_TuneCP5_PSweights_13TeV-powheg-pythia8/NANOAODSIM/PUMoriond17_Nano02Apr2020_102X_mcRun2_asymptotic_v8-v1/270000/42E26E07-2C76-E249-AACF-9F8C362B4530.root
p10
aVroot://cms-xrdr.private.lo:2094//xrd/store/mc/RunIISummer16NanoAODv7/TTToSemiLeptonic_TuneCP5_PSweights_13TeV-powheg-pythia8/NANOAODSIM/PUMoriond17_Nano02Apr2020_102X_mcRun2_asymptotic_v8-v1/270000/486C9B82-1918-D644-8AF3-590ECA9463F3.root
p11
aVroot://cms-xrdr.private.lo:2094//xrd/store/mc/RunIISummer16NanoAODv7/TTToSemiLeptonic_TuneCP5_PSweights_13TeV-powheg-pythia8/NANOAODSIM/PUMoriond17_Nano02Apr2020_102X_mcRun2_asymptotic_v8-v1/270000/683FA2B6-F2B0-324A-B50D-638A2ED8022B.root
p12
aVroot://cms-xrdr.private.lo:2094//xrd/store/mc/RunIISummer16NanoAODv7/TTToSemiLeptonic_TuneCP5_PSweights_13TeV-powheg-pythia8/NANOAODSIM/PUMoriond17_Nano02Apr2020_102X_mcRun2_asymptotic_v8-v1/270000/75A554E6-8BBD-F940-BA83-24EF331146CF.root
p13
aVroot://cms-xrdr.private.lo:2094//xrd/store/mc/RunIISummer16NanoAODv7/TTToSemiLeptonic_TuneCP5_PSweights_13TeV-powheg-pythia8/NANOAODSIM/PUMoriond17_Nano02Apr2020_102X_mcRun2_asymptotic_v8-v1/270000/82DB6A85-9BE2-4245-8CF1-4903EDCB802A.root
p14
aVroot://cms-xrdr.private.lo:2094//xrd/store/mc/RunIISummer16NanoAODv7/TTToSemiLeptonic_TuneCP5_PSweights_13TeV-powheg-pythia8/NANOAODSIM/PUMoriond17_Nano02Apr2020_102X_mcRun2_asymptotic_v8-v1/270000/906D3221-F59E-6F4A-A42B-1AAA571AE691.root
p15
aVroot://cms-xrdr.private.lo:2094//xrd/store/mc/RunIISummer16NanoAODv7/TTToSemiLeptonic_TuneCP5_PSweights_13TeV-powheg-pythia8/NANOAODSIM/PUMoriond17_Nano02Apr2020_102X_mcRun2_asymptotic_v8-v1/270000/9D3CF0E6-BCEC-554F-8216-43452964FEE9.root
p16
aVroot://cms-xrdr.private.lo:2094//xrd/store/mc/RunIISummer16NanoAODv7/TTToSemiLeptonic_TuneCP5_PSweights_13TeV-powheg-pythia8/NANOAODSIM/PUMoriond17_Nano02Apr2020_102X_mcRun2_asymptotic_v8-v1/270000/9FFBBCD5-252D-1441-BCAE-B639B9E5A60D.root
p17
aVroot://cms-xrdr.private.lo:2094//xrd/store/mc/RunIISummer16NanoAODv7/TTToSemiLeptonic_TuneCP5_PSweights_13TeV-powheg-pythia8/NANOAODSIM/PUMoriond17_Nano02Apr2020_102X_mcRun2_asymptotic_v8-v1/270000/AEA38ED7-9F5B-5045-BBC4-972FCB0E5D21.root
p18
aVroot://cms-xrdr.private.lo:2094//xrd/store/mc/RunIISummer16NanoAODv7/TTToSemiLeptonic_TuneCP5_PSweights_13TeV-powheg-pythia8/NANOAODSIM/PUMoriond17_Nano02Apr2020_102X_mcRun2_asymptotic_v8-v1/270000/CAB913A3-4716-6B49-AF36-6A65C83890F5.root
p19
aVroot://cms-xrdr.private.lo:2094//xrd/store/mc/RunIISummer16NanoAODv7/TTToSemiLeptonic_TuneCP5_PSweights_13TeV-powheg-pythia8/NANOAODSIM/PUMoriond17_Nano02Apr2020_102X_mcRun2_asymptotic_v8-v1/270000/CDDC5DC6-1C24-024E-9159-0ED984DB9295.root
p20
aVroot://cms-xrdr.private.lo:2094//xrd/store/mc/RunIISummer16NanoAODv7/TTToSemiLeptonic_TuneCP5_PSweights_13TeV-powheg-pythia8/NANOAODSIM/PUMoriond17_Nano02Apr2020_102X_mcRun2_asymptotic_v8-v1/270000/DC5DC207-0996-FB47-8781-AEB83C9CE4E4.root
p21
aVroot://cms-xrdr.private.lo:2094//xrd/store/mc/RunIISummer16NanoAODv7/TTToSemiLeptonic_TuneCP5_PSweights_13TeV-powheg-pythia8/NANOAODSIM/PUMoriond17_Nano02Apr2020_102X_mcRun2_asymptotic_v8-v1/270000/E3109324-B387-5546-AC99-BA260C848801.root
p22
aVroot://cms-xrdr.private.lo:2094//xrd/store/mc/RunIISummer16NanoAODv7/TTToSemiLeptonic_TuneCP5_PSweights_13TeV-powheg-pythia8/NANOAODSIM/PUMoriond17_Nano02Apr2020_102X_mcRun2_asymptotic_v8-v1/270000/E3B75A6F-AAB1-D84E-B899-2F002FCE0D7B.root
p23
a.