(lp0
Vroot://cms-xrdr.private.lo:2094//xrd/store/mc/RunIISummer16NanoAODv7/TTToSemiLeptonic_TuneCP5_PSweights_13TeV-powheg-pythia8/NANOAODSIM/PUMoriond17_Nano02Apr2020_102X_mcRun2_asymptotic_v8-v1/130000/05C734D3-253A-E54D-B483-8281151D11D0.root
p1
aVroot://cms-xrdr.private.lo:2094//xrd/store/mc/RunIISummer16NanoAODv7/TTToSemiLeptonic_TuneCP5_PSweights_13TeV-powheg-pythia8/NANOAODSIM/PUMoriond17_Nano02Apr2020_102X_mcRun2_asymptotic_v8-v1/130000/064605B2-F08D-5744-A195-C9F16CAE7AA0.root
p2
aVroot://cms-xrdr.private.lo:2094//xrd/store/mc/RunIISummer16NanoAODv7/TTToSemiLeptonic_TuneCP5_PSweights_13TeV-powheg-pythia8/NANOAODSIM/PUMoriond17_Nano02Apr2020_102X_mcRun2_asymptotic_v8-v1/130000/0E72ECE5-3470-4E4B-B94B-37C2B2703285.root
p3
aVroot://cms-xrdr.private.lo:2094//xrd/store/mc/RunIISummer16NanoAODv7/TTToSemiLeptonic_TuneCP5_PSweights_13TeV-powheg-pythia8/NANOAODSIM/PUMoriond17_Nano02Apr2020_102X_mcRun2_asymptotic_v8-v1/130000/158F7744-3B3A-1245-AD8C-7BD8264FC403.root
p4
aVroot://cms-xrdr.private.lo:2094//xrd/store/mc/RunIISummer16NanoAODv7/TTToSemiLeptonic_TuneCP5_PSweights_13TeV-powheg-pythia8/NANOAODSIM/PUMoriond17_Nano02Apr2020_102X_mcRun2_asymptotic_v8-v1/130000/3DF38928-9404-8445-AD08-00820EDDD7F2.root
p5
aVroot://cms-xrdr.private.lo:2094//xrd/store/mc/RunIISummer16NanoAODv7/TTToSemiLeptonic_TuneCP5_PSweights_13TeV-powheg-pythia8/NANOAODSIM/PUMoriond17_Nano02Apr2020_102X_mcRun2_asymptotic_v8-v1/130000/415BAF28-AA6C-F749-BCDF-4929E4B140F5.root
p6
aVroot://cms-xrdr.private.lo:2094//xrd/store/mc/RunIISummer16NanoAODv7/TTToSemiLeptonic_TuneCP5_PSweights_13TeV-powheg-pythia8/NANOAODSIM/PUMoriond17_Nano02Apr2020_102X_mcRun2_asymptotic_v8-v1/130000/50591279-37DE-474A-938A-D517D8120C2E.root
p7
aVroot://cms-xrdr.private.lo:2094//xrd/store/mc/RunIISummer16NanoAODv7/TTToSemiLeptonic_TuneCP5_PSweights_13TeV-powheg-pythia8/NANOAODSIM/PUMoriond17_Nano02Apr2020_102X_mcRun2_asymptotic_v8-v1/130000/5E7AB52D-FDB9-414B-AB34-3FCAC3B64F7C.root
p8
aVroot://cms-xrdr.private.lo:2094//xrd/store/mc/RunIISummer16NanoAODv7/TTToSemiLeptonic_TuneCP5_PSweights_13TeV-powheg-pythia8/NANOAODSIM/PUMoriond17_Nano02Apr2020_102X_mcRun2_asymptotic_v8-v1/130000/8F895DC4-0BA3-F143-BDE7-C5380222C6B6.root
p9
aVroot://cms-xrdr.private.lo:2094//xrd/store/mc/RunIISummer16NanoAODv7/TTToSemiLeptonic_TuneCP5_PSweights_13TeV-powheg-pythia8/NANOAODSIM/PUMoriond17_Nano02Apr2020_102X_mcRun2_asymptotic_v8-v1/130000/9C294CB0-8F46-5145-8EF2-2264AEC8B8FC.root
p10
aVroot://cms-xrdr.private.lo:2094//xrd/store/mc/RunIISummer16NanoAODv7/TTToSemiLeptonic_TuneCP5_PSweights_13TeV-powheg-pythia8/NANOAODSIM/PUMoriond17_Nano02Apr2020_102X_mcRun2_asymptotic_v8-v1/130000/A44F51E1-0ECD-8449-8C76-9124F0B8EE7F.root
p11
aVroot://cms-xrdr.private.lo:2094//xrd/store/mc/RunIISummer16NanoAODv7/TTToSemiLeptonic_TuneCP5_PSweights_13TeV-powheg-pythia8/NANOAODSIM/PUMoriond17_Nano02Apr2020_102X_mcRun2_asymptotic_v8-v1/130000/B4042A46-C0AA-744B-9D1F-88AF76476C6F.root
p12
aVroot://cms-xrdr.private.lo:2094//xrd/store/mc/RunIISummer16NanoAODv7/TTToSemiLeptonic_TuneCP5_PSweights_13TeV-powheg-pythia8/NANOAODSIM/PUMoriond17_Nano02Apr2020_102X_mcRun2_asymptotic_v8-v1/130000/B7C649CF-6B80-FE49-812E-0F5D5B322C8E.root
p13
aVroot://cms-xrdr.private.lo:2094//xrd/store/mc/RunIISummer16NanoAODv7/TTToSemiLeptonic_TuneCP5_PSweights_13TeV-powheg-pythia8/NANOAODSIM/PUMoriond17_Nano02Apr2020_102X_mcRun2_asymptotic_v8-v1/130000/BF2C0C30-CB7F-164B-B5C4-9421292519CD.root
p14
aVroot://cms-xrdr.private.lo:2094//xrd/store/mc/RunIISummer16NanoAODv7/TTToSemiLeptonic_TuneCP5_PSweights_13TeV-powheg-pythia8/NANOAODSIM/PUMoriond17_Nano02Apr2020_102X_mcRun2_asymptotic_v8-v1/130000/C2E14502-88B0-284C-A8B9-0FF70C7DC70B.root
p15
aVroot://cms-xrdr.private.lo:2094//xrd/store/mc/RunIISummer16NanoAODv7/TTToSemiLeptonic_TuneCP5_PSweights_13TeV-powheg-pythia8/NANOAODSIM/PUMoriond17_Nano02Apr2020_102X_mcRun2_asymptotic_v8-v1/130000/DD917A71-140A-7B4E-BF31-AA69594F4B8A.root
p16
aVroot://cms-xrdr.private.lo:2094//xrd/store/mc/RunIISummer16NanoAODv7/TTToSemiLeptonic_TuneCP5_PSweights_13TeV-powheg-pythia8/NANOAODSIM/PUMoriond17_Nano02Apr2020_102X_mcRun2_asymptotic_v8-v1/130000/ED3CAC1E-1A59-5E46-981A-D1927A9F0EE2.root
p17
a.