(lp0
Vroot://cms-xrdr.private.lo:2094//xrd/store/mc/RunIIFall17NanoAODv7/GluGluHToBB_M125_13TeV_amcatnloFXFX_pythia8/NANOAODSIM/PU2017_12Apr2018_Nano02Apr2020_102X_mc2017_realistic_v8-v1/260000/014DC11F-BEC1-2342-B7E4-4F72802CC805.root
p1
aVroot://cms-xrdr.private.lo:2094//xrd/store/mc/RunIIFall17NanoAODv7/GluGluHToBB_M125_13TeV_amcatnloFXFX_pythia8/NANOAODSIM/PU2017_12Apr2018_Nano02Apr2020_102X_mc2017_realistic_v8-v1/260000/1D1F4AF2-1F09-564C-9E11-68F6B274426A.root
p2
aVroot://cms-xrdr.private.lo:2094//xrd/store/mc/RunIIFall17NanoAODv7/GluGluHToBB_M125_13TeV_amcatnloFXFX_pythia8/NANOAODSIM/PU2017_12Apr2018_Nano02Apr2020_102X_mc2017_realistic_v8-v1/260000/378C1B1D-300B-4445-9E74-C932635F4B1D.root
p3
aVroot://cms-xrdr.private.lo:2094//xrd/store/mc/RunIIFall17NanoAODv7/GluGluHToBB_M125_13TeV_amcatnloFXFX_pythia8/NANOAODSIM/PU2017_12Apr2018_Nano02Apr2020_102X_mc2017_realistic_v8-v1/260000/76CE572E-0607-4748-90C6-424A64040A11.root
p4
aVroot://cms-xrdr.private.lo:2094//xrd/store/mc/RunIIFall17NanoAODv7/GluGluHToBB_M125_13TeV_amcatnloFXFX_pythia8/NANOAODSIM/PU2017_12Apr2018_Nano02Apr2020_102X_mc2017_realistic_v8-v1/260000/B4C3275A-D467-BC42-A87C-01AB102A6FEC.root
p5
aVroot://cms-xrdr.private.lo:2094//xrd/store/mc/RunIIFall17NanoAODv7/GluGluHToBB_M125_13TeV_amcatnloFXFX_pythia8/NANOAODSIM/PU2017_12Apr2018_Nano02Apr2020_102X_mc2017_realistic_v8-v1/260000/DE0C1B5A-DF86-A941-B3B7-BF013A7F13CC.root
p6
aVroot://cms-xrdr.private.lo:2094//xrd/store/mc/RunIIFall17NanoAODv7/GluGluHToBB_M125_13TeV_amcatnloFXFX_pythia8/NANOAODSIM/PU2017_12Apr2018_Nano02Apr2020_102X_mc2017_realistic_v8-v1/260000/E4FB7DA4-04B0-8A47-9C7F-319F1B10D7A5.root
p7
aVroot://cms-xrdr.private.lo:2094//xrd/store/mc/RunIIFall17NanoAODv7/GluGluHToBB_M125_13TeV_amcatnloFXFX_pythia8/NANOAODSIM/PU2017_12Apr2018_Nano02Apr2020_102X_mc2017_realistic_v8-v1/260000/E7C521A3-C3D1-844E-A90F-9DE9E0833682.root
p8
aVroot://cms-xrdr.private.lo:2094//xrd/store/mc/RunIIFall17NanoAODv7/GluGluHToBB_M125_13TeV_amcatnloFXFX_pythia8/NANOAODSIM/PU2017_12Apr2018_Nano02Apr2020_102X_mc2017_realistic_v8-v1/260000/F6BF0814-EC7B-1744-9CBC-ADA4DEE669A4.root
p9
a.