(lp0
Vroot://cms-xrdr.private.lo:2094//xrd/store/mc/RunIIFall17NanoAODv7/GluGluHToGG_M125_13TeV_amcatnloFXFX_pythia8/NANOAODSIM/PU2017_12Apr2018_Nano02Apr2020_EXT_102X_mc2017_realistic_v8-v1/230000/A901A08D-A1B5-094B-86D3-E56402721BE0.root
p1
a.