(lp0
Vroot://cms-xrdr.private.lo:2094//xrd/store/mc/RunIIFall17NanoAODv7/GluGluHToWWToLNuQQ_M125_NNPDF31_TuneCP5_PSweights_13TeV_powheg_JHUGen710_pythia8/NANOAODSIM/PU2017_12Apr2018_Nano02Apr2020_102X_mc2017_realistic_v8-v1/270000/8400ED5E-7D58-6C47-B2EF-D68531BAD542.root
p1
aVroot://cms-xrdr.private.lo:2094//xrd/store/mc/RunIIFall17NanoAODv7/GluGluHToWWToLNuQQ_M125_NNPDF31_TuneCP5_PSweights_13TeV_powheg_JHUGen710_pythia8/NANOAODSIM/PU2017_12Apr2018_Nano02Apr2020_102X_mc2017_realistic_v8-v1/270000/C4DB5DF5-BC42-384A-BD98-8ECB03BA5D2C.root
p2
aVroot://cms-xrdr.private.lo:2094//xrd/store/mc/RunIIFall17NanoAODv7/GluGluHToWWToLNuQQ_M125_NNPDF31_TuneCP5_PSweights_13TeV_powheg_JHUGen710_pythia8/NANOAODSIM/PU2017_12Apr2018_Nano02Apr2020_102X_mc2017_realistic_v8-v1/270000/D53D6FD7-B920-7D42-B800-47E89CE39311.root
p3
a.