(lp0
Vroot://cms-xrdr.private.lo:2094//xrd/store/mc/RunIIFall17NanoAODv7/GluGluHToZZTo4L_M125_13TeV_powheg2_JHUGenV7011_pythia8/NANOAODSIM/PU2017_12Apr2018_Nano02Apr2020_102X_mc2017_realistic_v8_ext3-v1/120000/0BF101EA-A511-604D-B5EE-EA075E8FEF52.root
p1
aVroot://cms-xrdr.private.lo:2094//xrd/store/mc/RunIIFall17NanoAODv7/GluGluHToZZTo4L_M125_13TeV_powheg2_JHUGenV7011_pythia8/NANOAODSIM/PU2017_12Apr2018_Nano02Apr2020_102X_mc2017_realistic_v8_ext3-v1/120000/9429E3E5-86D7-1D47-8EA5-6CBBB7E962BE.root
p2
a.