(lp0
Vroot://cms-xrdr.private.lo:2094//xrd/store/mc/RunIIFall17NanoAODv7/GluGluHToZZTo4L_M125_13TeV_powheg2_JHUGenV7011_pythia8/NANOAODSIM/PU2017_12Apr2018_Nano02Apr2020_102X_mc2017_realistic_v8_ext3-v1/110000/6D5DF5ED-8ABC-6940-9D86-391955E7DC16.root
p1
a.