(lp0
Vroot://cms-xrdr.private.lo:2094//xrd/store/mc/RunIIFall17NanoAODv7/GluGluHToWWToLNuQQ_M125_NNPDF31_TuneCP5_PSweights_13TeV_powheg_JHUGen710_pythia8/NANOAODSIM/PU2017_12Apr2018_Nano02Apr2020_102X_mc2017_realistic_v8-v1/110000/B3BB4377-9A6F-E24A-8141-0FC1CD0DAC5F.root
p1
a.