(lp0
Vroot://cms-xrdr.private.lo:2094//xrd/store/mc/RunIIFall17NanoAODv7/GluGluHToWWToLNuQQ_M125_NNPDF31_TuneCP5_PSweights_13TeV_powheg_JHUGen710_pythia8/NANOAODSIM/PU2017_12Apr2018_Nano02Apr2020_102X_mc2017_realistic_v8-v1/70000/2AF8670C-C714-7E4E-B0CA-908010C1E494.root
p1
aVroot://cms-xrdr.private.lo:2094//xrd/store/mc/RunIIFall17NanoAODv7/GluGluHToWWToLNuQQ_M125_NNPDF31_TuneCP5_PSweights_13TeV_powheg_JHUGen710_pythia8/NANOAODSIM/PU2017_12Apr2018_Nano02Apr2020_102X_mc2017_realistic_v8-v1/70000/317B841C-CBB2-3346-A574-B7D82CE5BC6C.root
p2
aVroot://cms-xrdr.private.lo:2094//xrd/store/mc/RunIIFall17NanoAODv7/GluGluHToWWToLNuQQ_M125_NNPDF31_TuneCP5_PSweights_13TeV_powheg_JHUGen710_pythia8/NANOAODSIM/PU2017_12Apr2018_Nano02Apr2020_102X_mc2017_realistic_v8-v1/70000/46928470-B73B-9445-BD40-9F42A3ACDE60.root
p3
aVroot://cms-xrdr.private.lo:2094//xrd/store/mc/RunIIFall17NanoAODv7/GluGluHToWWToLNuQQ_M125_NNPDF31_TuneCP5_PSweights_13TeV_powheg_JHUGen710_pythia8/NANOAODSIM/PU2017_12Apr2018_Nano02Apr2020_102X_mc2017_realistic_v8-v1/70000/51D75DD9-6DEA-CA4C-885D-89A54B68254F.root
p4
aVroot://cms-xrdr.private.lo:2094//xrd/store/mc/RunIIFall17NanoAODv7/GluGluHToWWToLNuQQ_M125_NNPDF31_TuneCP5_PSweights_13TeV_powheg_JHUGen710_pythia8/NANOAODSIM/PU2017_12Apr2018_Nano02Apr2020_102X_mc2017_realistic_v8-v1/70000/6985B93D-76CA-FB4B-8B56-79F19B5DE821.root
p5
aVroot://cms-xrdr.private.lo:2094//xrd/store/mc/RunIIFall17NanoAODv7/GluGluHToWWToLNuQQ_M125_NNPDF31_TuneCP5_PSweights_13TeV_powheg_JHUGen710_pythia8/NANOAODSIM/PU2017_12Apr2018_Nano02Apr2020_102X_mc2017_realistic_v8-v1/70000/F5E54704-B4FE-994C-A4BE-AF4C0DD8EB99.root
p6
a.