(lp0
Vroot://cms-xrdr.private.lo:2094//xrd/store/mc/RunIIFall17NanoAODv7/GluGluHToZZTo4L_M125_13TeV_powheg2_JHUGenV7011_pythia8/NANOAODSIM/PU2017_12Apr2018_Nano02Apr2020_102X_mc2017_realistic_v8_ext3-v1/130000/51DDBE35-5DD8-4649-99DF-BE85C84DB129.root
p1
aVroot://cms-xrdr.private.lo:2094//xrd/store/mc/RunIIFall17NanoAODv7/GluGluHToZZTo4L_M125_13TeV_powheg2_JHUGenV7011_pythia8/NANOAODSIM/PU2017_12Apr2018_Nano02Apr2020_102X_mc2017_realistic_v8_ext3-v1/130000/5FC914D4-6BF1-BE4C-A359-33C4525B597C.root
p2
aVroot://cms-xrdr.private.lo:2094//xrd/store/mc/RunIIFall17NanoAODv7/GluGluHToZZTo4L_M125_13TeV_powheg2_JHUGenV7011_pythia8/NANOAODSIM/PU2017_12Apr2018_Nano02Apr2020_102X_mc2017_realistic_v8_ext3-v1/130000/E6B0C184-43E0-764A-B310-771D5D5E8836.root
p3
a.