(lp0
Vroot://cms-xrdr.private.lo:2094//xrd/store/mc/RunIIFall17NanoAODv7/GluGluHToWWToLNuQQ_M125_NNPDF31_TuneCP5_PSweights_13TeV_powheg_JHUGen710_pythia8/NANOAODSIM/PU2017_12Apr2018_Nano02Apr2020_102X_mc2017_realistic_v8-v1/130000/9AA83B20-30FD-8D44-AB37-1683013725B9.root
p1
aVroot://cms-xrdr.private.lo:2094//xrd/store/mc/RunIIFall17NanoAODv7/GluGluHToWWToLNuQQ_M125_NNPDF31_TuneCP5_PSweights_13TeV_powheg_JHUGen710_pythia8/NANOAODSIM/PU2017_12Apr2018_Nano02Apr2020_102X_mc2017_realistic_v8-v1/130000/A924ABC3-FCA6-9645-9C2F-F8FEAF21BEBF.root
p2
a.