(lp0
Vroot://cms-xrdr.private.lo:2094//xrd/store/mc/RunIIFall17NanoAODv7/GluGluHToZZTo4L_M125_13TeV_powheg2_JHUGenV7011_pythia8/NANOAODSIM/PU2017_12Apr2018_Nano02Apr2020_102X_mc2017_realistic_v8_ext3-v1/100000/509127F9-96BD-F644-81B3-E2CF76A4A48D.root
p1
aVroot://cms-xrdr.private.lo:2094//xrd/store/mc/RunIIFall17NanoAODv7/GluGluHToZZTo4L_M125_13TeV_powheg2_JHUGenV7011_pythia8/NANOAODSIM/PU2017_12Apr2018_Nano02Apr2020_102X_mc2017_realistic_v8_ext3-v1/100000/7FDEC969-9B17-3444-A2B8-A6AC4C3A2CF0.root
p2
aVroot://cms-xrdr.private.lo:2094//xrd/store/mc/RunIIFall17NanoAODv7/GluGluHToZZTo4L_M125_13TeV_powheg2_JHUGenV7011_pythia8/NANOAODSIM/PU2017_12Apr2018_Nano02Apr2020_102X_mc2017_realistic_v8_ext3-v1/100000/E1ED7794-F500-2D45-B987-2D971698D1C2.root
p3
aVroot://cms-xrdr.private.lo:2094//xrd/store/mc/RunIIFall17NanoAODv7/GluGluHToZZTo4L_M125_13TeV_powheg2_JHUGenV7011_pythia8/NANOAODSIM/PU2017_12Apr2018_Nano02Apr2020_102X_mc2017_realistic_v8_ext3-v1/100000/ECC5694F-1051-9F42-A9D1-F9B1F55E9776.root
p4
a.