(lp0
Vroot://cms-xrdr.private.lo:2094//xrd/store/mc/RunIIFall17NanoAODv7/GluGluHToZZTo4L_M125_13TeV_powheg2_JHUGenV7011_pythia8/NANOAODSIM/PU2017_12Apr2018_Nano02Apr2020_102X_mc2017_realistic_v8_ext3-v1/260000/53FA0889-D7C9-1B4C-9CF5-13D890050CD3.root
p1
aVroot://cms-xrdr.private.lo:2094//xrd/store/mc/RunIIFall17NanoAODv7/GluGluHToZZTo4L_M125_13TeV_powheg2_JHUGenV7011_pythia8/NANOAODSIM/PU2017_12Apr2018_Nano02Apr2020_102X_mc2017_realistic_v8_ext3-v1/260000/8885546E-17DC-EF45-87E0-440AC938D713.root
p2
aVroot://cms-xrdr.private.lo:2094//xrd/store/mc/RunIIFall17NanoAODv7/GluGluHToZZTo4L_M125_13TeV_powheg2_JHUGenV7011_pythia8/NANOAODSIM/PU2017_12Apr2018_Nano02Apr2020_102X_mc2017_realistic_v8_ext3-v1/260000/AB782BC5-ABEE-3349-91AF-69969576E1F7.root
p3
a.