(lp0
Vroot://cms-xrdr.private.lo:2094//xrd/store/mc/RunIIFall17NanoAODv7/GluGluHToMuMu_M-125_TuneCP5_PSweights_13TeV_powheg_pythia8/NANOAODSIM/PU2017_12Apr2018_Nano02Apr2020_102X_mc2017_realistic_v8-v1/120000/D895B2B4-4E96-7148-A7BC-0BA529E808A0.root
p1
a.