(lp0
Vroot://cms-xrdr.private.lo:2094//xrd/store/mc/RunIIFall17NanoAODv7/GluGluHToMuMu_M-125_TuneCP5_PSweights_13TeV_powheg_pythia8/NANOAODSIM/PU2017_12Apr2018_Nano02Apr2020_102X_mc2017_realistic_v8-v1/100000/0B1FFB4F-B7A9-0C4C-9F47-3D225A389E03.root
p1
a.