(lp0
Vroot://cms-xrdr.private.lo:2094//xrd/store/mc/RunIIFall17NanoAODv7/GluGluHToMuMu_M-125_TuneCP5_PSweights_13TeV_powheg_pythia8/NANOAODSIM/PU2017_12Apr2018_Nano02Apr2020_102X_mc2017_realistic_v8-v1/60000/17CFBA38-17E5-DF4C-B976-311031D8E1C7.root
p1
aVroot://cms-xrdr.private.lo:2094//xrd/store/mc/RunIIFall17NanoAODv7/GluGluHToMuMu_M-125_TuneCP5_PSweights_13TeV_powheg_pythia8/NANOAODSIM/PU2017_12Apr2018_Nano02Apr2020_102X_mc2017_realistic_v8-v1/60000/36B649C1-5440-994B-A755-7D30551134A6.root
p2
aVroot://cms-xrdr.private.lo:2094//xrd/store/mc/RunIIFall17NanoAODv7/GluGluHToMuMu_M-125_TuneCP5_PSweights_13TeV_powheg_pythia8/NANOAODSIM/PU2017_12Apr2018_Nano02Apr2020_102X_mc2017_realistic_v8-v1/60000/3E5F7F0E-2ECF-214D-8CA4-961591001B4F.root
p3
a.