(lp0
Vroot://cms-xrdr.private.lo:2094//xrd/store/mc/RunIIFall17NanoAODv7/GluGluHToMuMu_M-125_TuneCP5_PSweights_13TeV_powheg_pythia8/NANOAODSIM/PU2017_12Apr2018_Nano02Apr2020_102X_mc2017_realistic_v8-v1/70000/082C291F-BCBD-704E-A273-0CC1D5F0F256.root
p1
aVroot://cms-xrdr.private.lo:2094//xrd/store/mc/RunIIFall17NanoAODv7/GluGluHToMuMu_M-125_TuneCP5_PSweights_13TeV_powheg_pythia8/NANOAODSIM/PU2017_12Apr2018_Nano02Apr2020_102X_mc2017_realistic_v8-v1/70000/0A5F43FF-A4BE-1943-9161-B5F8687D53A7.root
p2
aVroot://cms-xrdr.private.lo:2094//xrd/store/mc/RunIIFall17NanoAODv7/GluGluHToMuMu_M-125_TuneCP5_PSweights_13TeV_powheg_pythia8/NANOAODSIM/PU2017_12Apr2018_Nano02Apr2020_102X_mc2017_realistic_v8-v1/70000/1C550D21-8131-3B4B-A627-A7C2D16A269E.root
p3
aVroot://cms-xrdr.private.lo:2094//xrd/store/mc/RunIIFall17NanoAODv7/GluGluHToMuMu_M-125_TuneCP5_PSweights_13TeV_powheg_pythia8/NANOAODSIM/PU2017_12Apr2018_Nano02Apr2020_102X_mc2017_realistic_v8-v1/70000/A53719D7-1D0C-3847-B138-F10C0A1212E4.root
p4
a.