(lp0
Vroot://cms-xrdr.private.lo:2094//xrd/store/mc/RunIIFall17NanoAODv7/ST_s-channel_4f_leptonDecays_TuneCP5_13TeV-amcatnlo-pythia8/NANOAODSIM/PU2017_12Apr2018_Nano02Apr2020_102X_mc2017_realistic_v8-v1/60000/24A8C6E7-5285-2345-AB23-66057665D0FC.root
p1
aVroot://cms-xrdr.private.lo:2094//xrd/store/mc/RunIIFall17NanoAODv7/ST_s-channel_4f_leptonDecays_TuneCP5_13TeV-amcatnlo-pythia8/NANOAODSIM/PU2017_12Apr2018_Nano02Apr2020_102X_mc2017_realistic_v8-v1/60000/25C8CCBA-F01E-9646-B4C0-DE25AFC5C5FA.root
p2
aVroot://cms-xrdr.private.lo:2094//xrd/store/mc/RunIIFall17NanoAODv7/ST_s-channel_4f_leptonDecays_TuneCP5_13TeV-amcatnlo-pythia8/NANOAODSIM/PU2017_12Apr2018_Nano02Apr2020_102X_mc2017_realistic_v8-v1/60000/2705CECD-0CA7-904B-B4DE-9E70E54652B8.root
p3
aVroot://cms-xrdr.private.lo:2094//xrd/store/mc/RunIIFall17NanoAODv7/ST_s-channel_4f_leptonDecays_TuneCP5_13TeV-amcatnlo-pythia8/NANOAODSIM/PU2017_12Apr2018_Nano02Apr2020_102X_mc2017_realistic_v8-v1/60000/4459FCD2-24CD-4B47-A0F5-51A0C5CBBB61.root
p4
aVroot://cms-xrdr.private.lo:2094//xrd/store/mc/RunIIFall17NanoAODv7/ST_s-channel_4f_leptonDecays_TuneCP5_13TeV-amcatnlo-pythia8/NANOAODSIM/PU2017_12Apr2018_Nano02Apr2020_102X_mc2017_realistic_v8-v1/60000/922E71D4-3DAA-2543-81F6-855300C5528D.root
p5
aVroot://cms-xrdr.private.lo:2094//xrd/store/mc/RunIIFall17NanoAODv7/ST_s-channel_4f_leptonDecays_TuneCP5_13TeV-amcatnlo-pythia8/NANOAODSIM/PU2017_12Apr2018_Nano02Apr2020_102X_mc2017_realistic_v8-v1/60000/958F134B-4784-0541-9926-4CBF94ACEEEB.root
p6
aVroot://cms-xrdr.private.lo:2094//xrd/store/mc/RunIIFall17NanoAODv7/ST_s-channel_4f_leptonDecays_TuneCP5_13TeV-amcatnlo-pythia8/NANOAODSIM/PU2017_12Apr2018_Nano02Apr2020_102X_mc2017_realistic_v8-v1/60000/C6056161-3FAD-794C-BBFB-77DF940CE86C.root
p7
aVroot://cms-xrdr.private.lo:2094//xrd/store/mc/RunIIFall17NanoAODv7/ST_s-channel_4f_leptonDecays_TuneCP5_13TeV-amcatnlo-pythia8/NANOAODSIM/PU2017_12Apr2018_Nano02Apr2020_102X_mc2017_realistic_v8-v1/60000/DDBEDEEA-1FBD-1348-9046-759EE57C11CE.root
p8
aVroot://cms-xrdr.private.lo:2094//xrd/store/mc/RunIIFall17NanoAODv7/ST_s-channel_4f_leptonDecays_TuneCP5_13TeV-amcatnlo-pythia8/NANOAODSIM/PU2017_12Apr2018_Nano02Apr2020_102X_mc2017_realistic_v8-v1/60000/FB5270AC-5AAE-074D-A21B-A16A4FD5D759.root
p9
a.