(lp0
Vroot://cms-xrdr.private.lo:2094//xrd/store/mc/RunIIFall17NanoAODv7/ST_tWll_5f_LO_TuneCP5_PSweights_13TeV-madgraph-pythia8/NANOAODSIM/PU2017_12Apr2018_Nano02Apr2020_102X_mc2017_realistic_v8_ext1-v1/70000/80698B5E-B8EC-DD4D-BDBF-29266F4B69EA.root
p1
aVroot://cms-xrdr.private.lo:2094//xrd/store/mc/RunIIFall17NanoAODv7/ST_tWll_5f_LO_TuneCP5_PSweights_13TeV-madgraph-pythia8/NANOAODSIM/PU2017_12Apr2018_Nano02Apr2020_102X_mc2017_realistic_v8_ext1-v1/70000/9A44F595-895C-D648-BB79-72376FA035BD.root
p2
aVroot://cms-xrdr.private.lo:2094//xrd/store/mc/RunIIFall17NanoAODv7/ST_tWll_5f_LO_TuneCP5_PSweights_13TeV-madgraph-pythia8/NANOAODSIM/PU2017_12Apr2018_Nano02Apr2020_102X_mc2017_realistic_v8_ext1-v1/70000/AD7D5F5E-3C92-6942-88BB-59BA22748899.root
p3
a.