(lp0
Vroot://cms-xrdr.private.lo:2094//xrd/store/mc/RunIIFall17NanoAODv7/ST_tWll_5f_LO_TuneCP5_PSweights_13TeV-madgraph-pythia8/NANOAODSIM/PU2017_12Apr2018_Nano02Apr2020_102X_mc2017_realistic_v8_ext1-v1/260000/78D8EAF4-F43F-E649-8C3F-6C9001149C59.root
p1
aVroot://cms-xrdr.private.lo:2094//xrd/store/mc/RunIIFall17NanoAODv7/ST_tWll_5f_LO_TuneCP5_PSweights_13TeV-madgraph-pythia8/NANOAODSIM/PU2017_12Apr2018_Nano02Apr2020_102X_mc2017_realistic_v8_ext1-v1/260000/7B97C18E-BA3E-8C4C-AD70-0AB83B490AFB.root
p2
aVroot://cms-xrdr.private.lo:2094//xrd/store/mc/RunIIFall17NanoAODv7/ST_tWll_5f_LO_TuneCP5_PSweights_13TeV-madgraph-pythia8/NANOAODSIM/PU2017_12Apr2018_Nano02Apr2020_102X_mc2017_realistic_v8_ext1-v1/260000/CA382D2D-D303-B046-92C3-82AD9F5A17C1.root
p3
aVroot://cms-xrdr.private.lo:2094//xrd/store/mc/RunIIFall17NanoAODv7/ST_tWll_5f_LO_TuneCP5_PSweights_13TeV-madgraph-pythia8/NANOAODSIM/PU2017_12Apr2018_Nano02Apr2020_102X_mc2017_realistic_v8_ext1-v1/260000/CB7887E6-48B3-2A4A-A860-A61B64A52678.root
p4
aVroot://cms-xrdr.private.lo:2094//xrd/store/mc/RunIIFall17NanoAODv7/ST_tWll_5f_LO_TuneCP5_PSweights_13TeV-madgraph-pythia8/NANOAODSIM/PU2017_12Apr2018_Nano02Apr2020_102X_mc2017_realistic_v8_ext1-v1/260000/D5857CC0-638B-A64E-B621-6389D5EF0928.root
p5
a.