(lp0
Vroot://cms-xrdr.private.lo:2094//xrd/store/mc/RunIIFall17NanoAODv7/ST_tWll_5f_LO_TuneCP5_PSweights_13TeV-madgraph-pythia8/NANOAODSIM/PU2017_12Apr2018_Nano02Apr2020_102X_mc2017_realistic_v8_ext1-v1/100000/17D711D5-E13C-AB45-B081-39ECF309C1E1.root
p1
aVroot://cms-xrdr.private.lo:2094//xrd/store/mc/RunIIFall17NanoAODv7/ST_tWll_5f_LO_TuneCP5_PSweights_13TeV-madgraph-pythia8/NANOAODSIM/PU2017_12Apr2018_Nano02Apr2020_102X_mc2017_realistic_v8_ext1-v1/100000/56C5FF60-E27F-5D4F-BBFC-4B9A8AFD8A0D.root
p2
aVroot://cms-xrdr.private.lo:2094//xrd/store/mc/RunIIFall17NanoAODv7/ST_tWll_5f_LO_TuneCP5_PSweights_13TeV-madgraph-pythia8/NANOAODSIM/PU2017_12Apr2018_Nano02Apr2020_102X_mc2017_realistic_v8_ext1-v1/100000/7403D564-4C27-CB4D-9873-6E3CECA364CC.root
p3
aVroot://cms-xrdr.private.lo:2094//xrd/store/mc/RunIIFall17NanoAODv7/ST_tWll_5f_LO_TuneCP5_PSweights_13TeV-madgraph-pythia8/NANOAODSIM/PU2017_12Apr2018_Nano02Apr2020_102X_mc2017_realistic_v8_ext1-v1/100000/93F5763D-91A3-6244-81C8-84FC02A64F1F.root
p4
aVroot://cms-xrdr.private.lo:2094//xrd/store/mc/RunIIFall17NanoAODv7/ST_tWll_5f_LO_TuneCP5_PSweights_13TeV-madgraph-pythia8/NANOAODSIM/PU2017_12Apr2018_Nano02Apr2020_102X_mc2017_realistic_v8_ext1-v1/100000/B2F3C752-6C6C-9647-B133-6844083B14DA.root
p5
aVroot://cms-xrdr.private.lo:2094//xrd/store/mc/RunIIFall17NanoAODv7/ST_tWll_5f_LO_TuneCP5_PSweights_13TeV-madgraph-pythia8/NANOAODSIM/PU2017_12Apr2018_Nano02Apr2020_102X_mc2017_realistic_v8_ext1-v1/100000/D9430F16-A3DA-E244-A111-A2A32FB3850D.root
p6
aVroot://cms-xrdr.private.lo:2094//xrd/store/mc/RunIIFall17NanoAODv7/ST_tWll_5f_LO_TuneCP5_PSweights_13TeV-madgraph-pythia8/NANOAODSIM/PU2017_12Apr2018_Nano02Apr2020_102X_mc2017_realistic_v8_ext1-v1/100000/F0F0B0EB-93A2-6446-A55F-371DFA79C22D.root
p7
a.