(lp0
Vroot://cms-xrdr.private.lo:2094//xrd/store/mc/RunIIFall17NanoAODv7/ST_tWll_5f_LO_TuneCP5_PSweights_13TeV-madgraph-pythia8/NANOAODSIM/PU2017_12Apr2018_Nano02Apr2020_102X_mc2017_realistic_v8_ext1-v1/60000/409B5768-CE2D-CF4B-9CC9-3DB6DD3BA1B8.root
p1
aVroot://cms-xrdr.private.lo:2094//xrd/store/mc/RunIIFall17NanoAODv7/ST_tWll_5f_LO_TuneCP5_PSweights_13TeV-madgraph-pythia8/NANOAODSIM/PU2017_12Apr2018_Nano02Apr2020_102X_mc2017_realistic_v8_ext1-v1/60000/8A66BF9B-8926-8945-BD85-100B56F87C81.root
p2
aVroot://cms-xrdr.private.lo:2094//xrd/store/mc/RunIIFall17NanoAODv7/ST_tWll_5f_LO_TuneCP5_PSweights_13TeV-madgraph-pythia8/NANOAODSIM/PU2017_12Apr2018_Nano02Apr2020_102X_mc2017_realistic_v8_ext1-v1/60000/A11EFB7E-0CAD-7248-AF09-A5D2759BA8D6.root
p3
aVroot://cms-xrdr.private.lo:2094//xrd/store/mc/RunIIFall17NanoAODv7/ST_tWll_5f_LO_TuneCP5_PSweights_13TeV-madgraph-pythia8/NANOAODSIM/PU2017_12Apr2018_Nano02Apr2020_102X_mc2017_realistic_v8_ext1-v1/60000/AE1044D2-98D4-7746-A191-8B1217077CB6.root
p4
a.