(lp0
Vroot://cms-xrdr.private.lo:2094//xrd/store/mc/RunIIFall17NanoAODv7/W2JetsToLNu_TuneCP5_13TeV-madgraphMLM-pythia8/NANOAODSIM/PU2017_12Apr2018_Nano02Apr2020_EXT_102X_mc2017_realistic_v8-v1/270000/2194FA75-2C78-584F-A0DF-C37028EF09A4.root
p1
aVroot://cms-xrdr.private.lo:2094//xrd/store/mc/RunIIFall17NanoAODv7/W2JetsToLNu_TuneCP5_13TeV-madgraphMLM-pythia8/NANOAODSIM/PU2017_12Apr2018_Nano02Apr2020_EXT_102X_mc2017_realistic_v8-v1/270000/22FAD861-F4B7-5347-B130-7E0CDFEE3272.root
p2
aVroot://cms-xrdr.private.lo:2094//xrd/store/mc/RunIIFall17NanoAODv7/W2JetsToLNu_TuneCP5_13TeV-madgraphMLM-pythia8/NANOAODSIM/PU2017_12Apr2018_Nano02Apr2020_EXT_102X_mc2017_realistic_v8-v1/270000/29B88C4C-7AC5-D340-AA94-4AC3BB7EBABA.root
p3
aVroot://cms-xrdr.private.lo:2094//xrd/store/mc/RunIIFall17NanoAODv7/W2JetsToLNu_TuneCP5_13TeV-madgraphMLM-pythia8/NANOAODSIM/PU2017_12Apr2018_Nano02Apr2020_EXT_102X_mc2017_realistic_v8-v1/270000/37F6101B-0D73-7246-BE33-902C76FEBA45.root
p4
aVroot://cms-xrdr.private.lo:2094//xrd/store/mc/RunIIFall17NanoAODv7/W2JetsToLNu_TuneCP5_13TeV-madgraphMLM-pythia8/NANOAODSIM/PU2017_12Apr2018_Nano02Apr2020_EXT_102X_mc2017_realistic_v8-v1/270000/6134AC95-36AE-6D4B-B99E-140223362B17.root
p5
aVroot://cms-xrdr.private.lo:2094//xrd/store/mc/RunIIFall17NanoAODv7/W2JetsToLNu_TuneCP5_13TeV-madgraphMLM-pythia8/NANOAODSIM/PU2017_12Apr2018_Nano02Apr2020_EXT_102X_mc2017_realistic_v8-v1/270000/7CA3AE88-1E64-4C4C-A9C0-21E1F1CAC2B6.root
p6
aVroot://cms-xrdr.private.lo:2094//xrd/store/mc/RunIIFall17NanoAODv7/W2JetsToLNu_TuneCP5_13TeV-madgraphMLM-pythia8/NANOAODSIM/PU2017_12Apr2018_Nano02Apr2020_EXT_102X_mc2017_realistic_v8-v1/270000/7E9CC132-D962-5E48-A407-14DF2CB73DEE.root
p7
aVroot://cms-xrdr.private.lo:2094//xrd/store/mc/RunIIFall17NanoAODv7/W2JetsToLNu_TuneCP5_13TeV-madgraphMLM-pythia8/NANOAODSIM/PU2017_12Apr2018_Nano02Apr2020_EXT_102X_mc2017_realistic_v8-v1/270000/82D04DF5-6F97-4649-A483-D9B886EFA645.root
p8
aVroot://cms-xrdr.private.lo:2094//xrd/store/mc/RunIIFall17NanoAODv7/W2JetsToLNu_TuneCP5_13TeV-madgraphMLM-pythia8/NANOAODSIM/PU2017_12Apr2018_Nano02Apr2020_EXT_102X_mc2017_realistic_v8-v1/270000/9C575BED-6ECD-D24E-BC82-340910E05177.root
p9
aVroot://cms-xrdr.private.lo:2094//xrd/store/mc/RunIIFall17NanoAODv7/W2JetsToLNu_TuneCP5_13TeV-madgraphMLM-pythia8/NANOAODSIM/PU2017_12Apr2018_Nano02Apr2020_EXT_102X_mc2017_realistic_v8-v1/270000/A1714C50-1F89-544A-8C72-30193379C3EC.root
p10
aVroot://cms-xrdr.private.lo:2094//xrd/store/mc/RunIIFall17NanoAODv7/W2JetsToLNu_TuneCP5_13TeV-madgraphMLM-pythia8/NANOAODSIM/PU2017_12Apr2018_Nano02Apr2020_EXT_102X_mc2017_realistic_v8-v1/270000/A1F72CB1-6B97-B74C-A247-FB3912001A91.root
p11
aVroot://cms-xrdr.private.lo:2094//xrd/store/mc/RunIIFall17NanoAODv7/W2JetsToLNu_TuneCP5_13TeV-madgraphMLM-pythia8/NANOAODSIM/PU2017_12Apr2018_Nano02Apr2020_EXT_102X_mc2017_realistic_v8-v1/270000/ABA39888-74A4-2D48-8D65-D94893A9D75D.root
p12
aVroot://cms-xrdr.private.lo:2094//xrd/store/mc/RunIIFall17NanoAODv7/W2JetsToLNu_TuneCP5_13TeV-madgraphMLM-pythia8/NANOAODSIM/PU2017_12Apr2018_Nano02Apr2020_EXT_102X_mc2017_realistic_v8-v1/270000/B06A1960-ACB5-D04A-9A11-C9256FC61D3B.root
p13
aVroot://cms-xrdr.private.lo:2094//xrd/store/mc/RunIIFall17NanoAODv7/W2JetsToLNu_TuneCP5_13TeV-madgraphMLM-pythia8/NANOAODSIM/PU2017_12Apr2018_Nano02Apr2020_EXT_102X_mc2017_realistic_v8-v1/270000/B2785B82-01CF-7F41-BA2B-47F8DA5D73F0.root
p14
aVroot://cms-xrdr.private.lo:2094//xrd/store/mc/RunIIFall17NanoAODv7/W2JetsToLNu_TuneCP5_13TeV-madgraphMLM-pythia8/NANOAODSIM/PU2017_12Apr2018_Nano02Apr2020_EXT_102X_mc2017_realistic_v8-v1/270000/DAE2B250-311C-B942-A500-B85B3B2CD266.root
p15
aVroot://cms-xrdr.private.lo:2094//xrd/store/mc/RunIIFall17NanoAODv7/W2JetsToLNu_TuneCP5_13TeV-madgraphMLM-pythia8/NANOAODSIM/PU2017_12Apr2018_Nano02Apr2020_EXT_102X_mc2017_realistic_v8-v1/270000/E62B2D88-C60E-7E40-B682-56700BA0C456.root
p16
aVroot://cms-xrdr.private.lo:2094//xrd/store/mc/RunIIFall17NanoAODv7/W2JetsToLNu_TuneCP5_13TeV-madgraphMLM-pythia8/NANOAODSIM/PU2017_12Apr2018_Nano02Apr2020_EXT_102X_mc2017_realistic_v8-v1/270000/EA2ED829-382D-224B-BA35-0138E00C89CE.root
p17
aVroot://cms-xrdr.private.lo:2094//xrd/store/mc/RunIIFall17NanoAODv7/W2JetsToLNu_TuneCP5_13TeV-madgraphMLM-pythia8/NANOAODSIM/PU2017_12Apr2018_Nano02Apr2020_EXT_102X_mc2017_realistic_v8-v1/270000/F8109678-AF91-6341-ACDB-2F78A7C5D376.root
p18
a.