(lp0
Vroot://cms-xrdr.private.lo:2094///xrd/store/mc/RunIIFall17NanoAODv7/W4JetsToLNu_TuneCP5_13TeV-madgraphMLM-pythia8/NANOAODSIM/PU2017_12Apr2018_Nano02Apr2020_new_pmx_102X_mc2017_realistic_v8-v1/270000/03627EAC-4FD5-924C-A85C-4E2172A3E23A.root
p1
aVroot://cms-xrdr.private.lo:2094///xrd/store/mc/RunIIFall17NanoAODv7/W4JetsToLNu_TuneCP5_13TeV-madgraphMLM-pythia8/NANOAODSIM/PU2017_12Apr2018_Nano02Apr2020_new_pmx_102X_mc2017_realistic_v8-v1/270000/15E92E7D-4983-884C-9518-92D15C12A508.root
p2
aVroot://cms-xrdr.private.lo:2094///xrd/store/mc/RunIIFall17NanoAODv7/W4JetsToLNu_TuneCP5_13TeV-madgraphMLM-pythia8/NANOAODSIM/PU2017_12Apr2018_Nano02Apr2020_new_pmx_102X_mc2017_realistic_v8-v1/270000/874C7DB2-49C2-C647-AD1E-123CA6A982A9.root
p3
aVroot://cms-xrdr.private.lo:2094///xrd/store/mc/RunIIFall17NanoAODv7/W4JetsToLNu_TuneCP5_13TeV-madgraphMLM-pythia8/NANOAODSIM/PU2017_12Apr2018_Nano02Apr2020_new_pmx_102X_mc2017_realistic_v8-v1/270000/CFF0CF35-F23B-A84B-B503-387A8F36AB34.root
p4
a.