(lp0
Vroot://cms-xrdr.private.lo:2094///xrd/store/mc/RunIIFall17NanoAODv7/W4JetsToLNu_TuneCP5_13TeV-madgraphMLM-pythia8/NANOAODSIM/PU2017_12Apr2018_Nano02Apr2020_new_pmx_102X_mc2017_realistic_v8-v1/70000/44069A20-B9B9-4E48-AFD0-2955E9E5160A.root
p1
aVroot://cms-xrdr.private.lo:2094///xrd/store/mc/RunIIFall17NanoAODv7/W4JetsToLNu_TuneCP5_13TeV-madgraphMLM-pythia8/NANOAODSIM/PU2017_12Apr2018_Nano02Apr2020_new_pmx_102X_mc2017_realistic_v8-v1/70000/76A40816-69BD-A44B-A580-64C806D55B04.root
p2
aVroot://cms-xrdr.private.lo:2094///xrd/store/mc/RunIIFall17NanoAODv7/W4JetsToLNu_TuneCP5_13TeV-madgraphMLM-pythia8/NANOAODSIM/PU2017_12Apr2018_Nano02Apr2020_new_pmx_102X_mc2017_realistic_v8-v1/70000/8EA5CB49-363A-6340-9D48-903B65C24910.root
p3
aVroot://cms-xrdr.private.lo:2094///xrd/store/mc/RunIIFall17NanoAODv7/W4JetsToLNu_TuneCP5_13TeV-madgraphMLM-pythia8/NANOAODSIM/PU2017_12Apr2018_Nano02Apr2020_new_pmx_102X_mc2017_realistic_v8-v1/70000/FD5DD328-E057-4A42-B4BC-55B49504A56E.root
p4
a.