(lp0
Vroot://cms-xrdr.private.lo:2094//xrd/store/data/Run2016H/DoubleEG/NANOAOD/Nano25Oct2019-v1/30000/912C64FF-0DD3-204D-A4E7-90492ECCE65D.root
p1
aVroot://cms-xrdr.private.lo:2094//xrd/store/data/Run2016H/DoubleEG/NANOAOD/Nano25Oct2019-v1/30000/A2FB2C36-AB4B-584A-AB84-42547AA15406.root
p2
a.