(lp0
Vroot://cms-xrdr.private.lo:2094//xrd/store/data/Run2016C/DoubleEG/NANOAOD/Nano25Oct2019-v1/40000/02BD079E-9BD3-314C-AE27-CFF3B6C6DB04.root
p1
aVroot://cms-xrdr.private.lo:2094//xrd/store/data/Run2016C/DoubleEG/NANOAOD/Nano25Oct2019-v1/40000/2311FD0E-461D-AC4A-9657-27BEE2155985.root
p2
a.