(lp0
Vroot://cms-xrdr.private.lo:2094//xrd/store/data/Run2016D/DoubleEG/NANOAOD/Nano25Oct2019-v1/40000/26D87A0C-061A-2149-B747-BA3475BF8E28.root
p1
aVroot://cms-xrdr.private.lo:2094//xrd/store/data/Run2016D/DoubleEG/NANOAOD/Nano25Oct2019-v1/40000/3A372EB6-AB45-BE44-89F8-70C477D19388.root
p2
a.