(lp0
Vroot://cms-xrdr.private.lo:2094//xrd/store/data/Run2016G/MuonEG/NANOAOD/Nano1June2019-v1/60000/51B9B7F1-4513-F44B-BC9C-1F5D282ECD15.root
p1
aVroot://cms-xrdr.private.lo:2094//xrd/store/data/Run2016G/MuonEG/NANOAOD/Nano1June2019-v1/60000/58451F92-C3F8-624A-821C-F13815A5B6EE.root
p2
a.