(lp0
Vroot://cms-xrdr.private.lo:2094//xrd/store/data/Run2016E/DoubleEG/NANOAOD/Nano25Oct2019-v1/30000/22EF0890-289B-794A-8EB3-7FF0B90B6D44.root
p1
aVroot://cms-xrdr.private.lo:2094//xrd/store/data/Run2016E/DoubleEG/NANOAOD/Nano25Oct2019-v1/30000/31327D49-82B3-8D47-8B9F-DC0B342B8FED.root
p2
a.