(lp0
Vroot://cms-xrdr.private.lo:2094//xrd/store/data/Run2016C/MuonEG/NANOAOD/Nano1June2019-v1/60000/BB2D06A9-0DAD-7E4C-AC19-49576C7589CE.root
p1
aVroot://cms-xrdr.private.lo:2094//xrd/store/data/Run2016C/MuonEG/NANOAOD/Nano1June2019-v1/60000/CE9205B2-984D-5347-8A6C-39AA7C6D85B0.root
p2
a.