(lp0
Vroot://cms-xrdr.private.lo:2094//xrd/store/data/Run2016H/DoubleEG/NANOAOD/Nano25Oct2019-v1/30000/DE60DCC4-44B7-2A4F-B1EB-C8F459CFD438.root
p1
aVroot://cms-xrdr.private.lo:2094//xrd/store/data/Run2016H/DoubleEG/NANOAOD/Nano25Oct2019-v1/30000/E0D79497-352E-3242-A3D6-0492072BC7CB.root
p2
a.