(lp0
Vroot://cms-xrdr.private.lo:2094//xrd/store/data/Run2016G/DoubleMuon/NANOAOD/Nano25Oct2019-v1/240000/3DC85A20-286C-1F4A-B370-4CA4559D5070.root
p1
aVroot://cms-xrdr.private.lo:2094//xrd/store/data/Run2016G/DoubleMuon/NANOAOD/Nano25Oct2019-v1/240000/3DEA0B8C-02BD-4543-9D20-5B6D691AA243.root
p2
a.