(lp0
Vroot://cms-xrdr.private.lo:2094//xrd/store/data/Run2016D/MuonEG/NANOAOD/Nano1June2019-v1/240000/B3496D67-7CE0-F341-8069-E9B7753A6CD5.root
p1
aVroot://cms-xrdr.private.lo:2094//xrd/store/data/Run2016D/MuonEG/NANOAOD/Nano1June2019-v1/240000/B738B4CC-8199-B441-9770-E838F746398D.root
p2
a.