(lp0
Vroot://cms-xrdr.private.lo:2094//xrd/store/data/Run2016B_ver2/DoubleEG/NANOAOD/Nano25Oct2019_ver2-v1/240000/3D48FAE5-1B5C-8543-A3FD-DAC399D2DD75.root
p1
aVroot://cms-xrdr.private.lo:2094//xrd/store/data/Run2016B_ver2/DoubleEG/NANOAOD/Nano25Oct2019_ver2-v1/240000/4061FC1F-9EF6-A243-87FE-63AE4EDEAD7A.root
p2
a.