(lp0
Vroot://cms-xrdr.private.lo:2094//xrd/store/data/Run2016G/DoubleEG/NANOAOD/Nano25Oct2019-v1/230000/D0531A45-C118-1C43-9BCC-945A89DCFB79.root
p1
aVroot://cms-xrdr.private.lo:2094//xrd/store/data/Run2016G/DoubleEG/NANOAOD/Nano25Oct2019-v1/230000/E7794E75-88A9-E04B-A6DC-48F2CABFC0ED.root
p2
a.