(lp0
Vroot://cms-xrdr.private.lo:2094//xrd/store/data/Run2016G/DoubleEG/NANOAOD/Nano25Oct2019-v1/230000/9F3B7346-8A35-AC40-B867-D52BF3D385C2.root
p1
aVroot://cms-xrdr.private.lo:2094//xrd/store/data/Run2016G/DoubleEG/NANOAOD/Nano25Oct2019-v1/230000/A446C7F5-5425-8B4C-A83B-183BBD01BE4C.root
p2
a.