(lp0
Vroot://cms-xrdr.private.lo:2094//xrd/store/data/Run2016D/DoubleEG/NANOAOD/Nano25Oct2019-v1/40000/40D51DB6-4223-F347-8772-364C08B843BA.root
p1
aVroot://cms-xrdr.private.lo:2094//xrd/store/data/Run2016D/DoubleEG/NANOAOD/Nano25Oct2019-v1/40000/414B0D58-D957-934A-9EEE-046B77175D93.root
p2
a.