(lp0
Vroot://cms-xrdr.private.lo:2094//xrd/store/data/Run2016H/DoubleEG/NANOAOD/Nano25Oct2019-v1/30000/635FBBAF-532C-BF41-8FFF-2A23ACA36C22.root
p1
aVroot://cms-xrdr.private.lo:2094//xrd/store/data/Run2016H/DoubleEG/NANOAOD/Nano25Oct2019-v1/30000/6519042F-4B3F-3C4F-903A-ECB75653E5B2.root
p2
a.