(lp0
Vroot://cms-xrdr.private.lo:2094//xrd/store/data/Run2016E/DoubleEG/NANOAOD/Nano25Oct2019-v1/30000/7F2E4C2F-18CD-0A48-9DD7-55FFE5265E44.root
p1
aVroot://cms-xrdr.private.lo:2094//xrd/store/data/Run2016E/DoubleEG/NANOAOD/Nano25Oct2019-v1/30000/82C13B76-BDE2-E547-B6E1-57CA6F545B3C.root
p2
a.