(lp0
Vroot://cms-xrdr.private.lo:2094//xrd/store/data/Run2016F/MuonEG/NANOAOD/Nano1June2019-v1/30000/4C6E0F1A-1381-0645-BFF2-A3848A07060C.root
p1
aVroot://cms-xrdr.private.lo:2094//xrd/store/data/Run2016F/MuonEG/NANOAOD/Nano1June2019-v1/30000/57AF6E78-AF19-A04A-BA8C-1E8E57B5A5DD.root
p2
a.