(lp0
Vroot://cms-xrdr.private.lo:2094//xrd/store/data/Run2016E/DoubleEG/NANOAOD/Nano25Oct2019-v1/30000/320A9996-9311-FE4D-A714-FCC57980BB5F.root
p1
aVroot://cms-xrdr.private.lo:2094//xrd/store/data/Run2016E/DoubleEG/NANOAOD/Nano25Oct2019-v1/30000/33264884-8125-6A43-B0B5-91BB671CC6AE.root
p2
a.