(lp0
Vroot://cms-xrdr.private.lo:2094//xrd/store/data/Run2016G/MuonEG/NANOAOD/Nano1June2019-v1/60000/A3BC0041-964C-6340-854F-3A79E0D4B21B.root
p1
aVroot://cms-xrdr.private.lo:2094//xrd/store/data/Run2016G/MuonEG/NANOAOD/Nano1June2019-v1/60000/AE1B8224-AEB8-9542-8EC3-BE4D3EA297FB.root
p2
a.