(lp0
Vroot://cms-xrdr.private.lo:2094//xrd/store/data/Run2016H/DoubleEG/NANOAOD/Nano25Oct2019-v1/30000/2A6B58ED-17F1-604B-BB06-C2314ABAC06D.root
p1
aVroot://cms-xrdr.private.lo:2094//xrd/store/data/Run2016H/DoubleEG/NANOAOD/Nano25Oct2019-v1/30000/2E005718-EF1E-CC42-A4CB-7A1F76D91044.root
p2
a.