(lp0
Vroot://cms-xrdr.private.lo:2094//xrd/store/data/Run2016C/DoubleEG/NANOAOD/Nano25Oct2019-v1/40000/60D04EB5-1A00-3F45-B02A-5A2B6C949621.root
p1
aVroot://cms-xrdr.private.lo:2094//xrd/store/data/Run2016C/DoubleEG/NANOAOD/Nano25Oct2019-v1/40000/624C73A6-F528-D444-A567-E24A0FCED7B7.root
p2
a.