(lp0
Vroot://cms-xrdr.private.lo:2094//xrd/store/data/Run2016C/MuonEG/NANOAOD/Nano1June2019-v1/60000/218F3FE5-5A88-2E41-9F48-F99DBD57AD93.root
p1
aVroot://cms-xrdr.private.lo:2094//xrd/store/data/Run2016C/MuonEG/NANOAOD/Nano1June2019-v1/60000/3318E0E1-2BC3-934E-A4AC-1A187E14EAEE.root
p2
a.