(lp0
Vroot://cms-xrdr.private.lo:2094//xrd/store/data/Run2016H/DoubleEG/NANOAOD/Nano25Oct2019-v1/30000/3263C16F-6F33-B842-9F76-846A7133D781.root
p1
aVroot://cms-xrdr.private.lo:2094//xrd/store/data/Run2016H/DoubleEG/NANOAOD/Nano25Oct2019-v1/30000/3B180FC5-09F1-A441-BA41-D3C96B06ABAD.root
p2
a.