(lp0
Vroot://cms-xrdr.private.lo:2094//xrd/store/data/Run2016G/DoubleEG/NANOAOD/Nano25Oct2019-v1/40000/1A531C0C-8504-9F4C-8130-DF5E9C6BDD8A.root
p1
aVroot://cms-xrdr.private.lo:2094//xrd/store/data/Run2016G/DoubleEG/NANOAOD/Nano25Oct2019-v1/40000/21489CD4-0E72-A44C-90BF-27ABDE92463B.root
p2
a.