(lp0
Vroot://cms-xrdr.private.lo:2094//xrd/store/data/Run2016E/MuonEG/NANOAOD/Nano1June2019-v3/40000/4D49E1AD-68FC-8F4B-8097-1EB04BA803E2.root
p1
aVroot://cms-xrdr.private.lo:2094//xrd/store/data/Run2016E/MuonEG/NANOAOD/Nano1June2019-v3/40000/5389F5FD-B419-D74F-8B6D-59E621CDF822.root
p2
a.