(lp0
Vroot://cms-xrdr.private.lo:2094//xrd/store/data/Run2016E/MuonEG/NANOAOD/Nano1June2019-v3/40000/089C26A9-982F-904B-9AA4-049B24B51147.root
p1
aVroot://cms-xrdr.private.lo:2094//xrd/store/data/Run2016E/MuonEG/NANOAOD/Nano1June2019-v3/40000/0BFC3DD7-BD90-5344-AE10-5C5E882C0CE9.root
p2
a.