(lp0
Vroot://cms-xrdr.private.lo:2094//xrd/store/data/Run2016C/DoubleEG/NANOAOD/Nano25Oct2019-v1/40000/882D2153-BE94-7D4F-A4A3-B6AA05E7A40A.root
p1
aVroot://cms-xrdr.private.lo:2094//xrd/store/data/Run2016C/DoubleEG/NANOAOD/Nano25Oct2019-v1/40000/897C9D06-89D1-FA4C-B5F8-D81F8B4001F6.root
p2
a.