(lp0
Vroot://cms-xrdr.private.lo:2094//xrd/store/data/Run2016F/DoubleEG/NANOAOD/Nano25Oct2019-v1/240000/8CE7156E-91B2-6045-9DA7-0342CFC6236F.root
p1
aVroot://cms-xrdr.private.lo:2094//xrd/store/data/Run2016F/DoubleEG/NANOAOD/Nano25Oct2019-v1/240000/90A7CE31-58F3-8E43-B6D3-0D7C18BD3172.root
p2
a.