(lp0
Vroot://cms-xrdr.private.lo:2094//xrd/store/data/Run2016G/MuonEG/NANOAOD/Nano1June2019-v1/60000/88F7EB2A-D3D1-314E-80B2-598011D7BF40.root
p1
aVroot://cms-xrdr.private.lo:2094//xrd/store/data/Run2016G/MuonEG/NANOAOD/Nano1June2019-v1/60000/9CB4EA15-B9FB-914D-AB16-9A35BFBC58F9.root
p2
a.