(lp0
Vroot://cms-xrdr.private.lo:2094//xrd/store/data/Run2016F/MuonEG/NANOAOD/Nano1June2019-v1/30000/90400EC0-F8FF-1A44-9CE2-0EF86B61F030.root
p1
aVroot://cms-xrdr.private.lo:2094//xrd/store/data/Run2016F/MuonEG/NANOAOD/Nano1June2019-v1/30000/B0A5B13E-D833-FE4D-BE8F-DA7A86669B0E.root
p2
a.