(lp0
Vroot://cms-xrdr.private.lo:2094//xrd/store/data/Run2016F/DoubleEG/NANOAOD/Nano25Oct2019-v1/240000/5F544514-FFDE-A24E-BD6B-5CE8BB9E0989.root
p1
aVroot://cms-xrdr.private.lo:2094//xrd/store/data/Run2016F/DoubleEG/NANOAOD/Nano25Oct2019-v1/240000/6AD65F07-12CC-4D42-930B-17452D303BE9.root
p2
a.