(lp0
Vroot://cms-xrdr.private.lo:2094//xrd/store/data/Run2016H/DoubleEG/NANOAOD/Nano25Oct2019-v1/30000/B0ED1BAF-2DDE-3C43-9B85-40882201DAE3.root
p1
aVroot://cms-xrdr.private.lo:2094//xrd/store/data/Run2016H/DoubleEG/NANOAOD/Nano25Oct2019-v1/30000/B65B9B7E-1305-EB40-919B-F91C053D04C5.root
p2
a.