(lp0
Vroot://cms-xrdr.private.lo:2094//xrd/store/data/Run2016G/DoubleMuon/NANOAOD/Nano25Oct2019-v1/240000/DC4677C2-8729-FF48-8357-B62BFFDE2C1E.root
p1
aVroot://cms-xrdr.private.lo:2094//xrd/store/data/Run2016G/DoubleMuon/NANOAOD/Nano25Oct2019-v1/240000/DD29AEB3-CFEB-D34F-9228-10026A5E43B3.root
p2
a.