(lp0
Vroot://cms-xrdr.private.lo:2094//xrd/store/data/Run2016G/DoubleEG/NANOAOD/Nano25Oct2019-v1/230000/7C2A7B4C-77A8-C74A-B0F7-938704EE14AC.root
p1
aVroot://cms-xrdr.private.lo:2094//xrd/store/data/Run2016G/DoubleEG/NANOAOD/Nano25Oct2019-v1/230000/98966E2B-C586-0640-8587-452E0B8CDD91.root
p2
a.