(lp0
Vroot://cms-xrdr.private.lo:2094//xrd/store/data/Run2016C/DoubleEG/NANOAOD/Nano25Oct2019-v1/40000/9DAE1978-DCEB-8645-A091-48CC1848E8A9.root
p1
aVroot://cms-xrdr.private.lo:2094//xrd/store/data/Run2016C/DoubleEG/NANOAOD/Nano25Oct2019-v1/40000/A3587AA2-3DD6-984D-8010-7F4445737342.root
p2
a.