(lp0
Vroot://cms-xrdr.private.lo:2094//xrd/store/data/Run2016G/DoubleEG/NANOAOD/Nano25Oct2019-v1/230000/6D45C184-BC0D-3D4A-B7ED-BAFB774EC87B.root
p1
aVroot://cms-xrdr.private.lo:2094//xrd/store/data/Run2016G/DoubleEG/NANOAOD/Nano25Oct2019-v1/230000/75E48EE3-4EA6-F74B-8D63-12D9A88CDF02.root
p2
a.