(lp0
Vroot://cms-xrdr.private.lo:2094//xrd/store/data/Run2016H/MuonEG/NANOAOD/Nano1June2019-v1/30000/AD8872BE-C77D-914E-88A3-5558BA2B777B.root
p1
aVroot://cms-xrdr.private.lo:2094//xrd/store/data/Run2016H/MuonEG/NANOAOD/Nano1June2019-v1/30000/CA51D508-7AE5-6249-965B-A014E16C0375.root
p2
a.