(lp0
Vroot://cms-xrdr.private.lo:2094//xrd/store/data/Run2016G/DoubleMuon/NANOAOD/Nano25Oct2019-v1/240000/7D2C0223-EECE-5649-BC85-4B87E23248EC.root
p1
aVroot://cms-xrdr.private.lo:2094//xrd/store/data/Run2016G/DoubleMuon/NANOAOD/Nano25Oct2019-v1/240000/84458DBC-C38A-4449-879A-6FD50A37A9E9.root
p2
a.