(lp0
Vroot://cms-xrdr.private.lo:2094//xrd/store/data/Run2016G/DoubleEG/NANOAOD/Nano25Oct2019-v1/230000/0889F971-7604-3746-8684-F2B12E7FE1CC.root
p1
aVroot://cms-xrdr.private.lo:2094//xrd/store/data/Run2016G/DoubleEG/NANOAOD/Nano25Oct2019-v1/230000/14647775-4E94-8644-9353-355E222D49D3.root
p2
a.