(lp0
Vroot://cms-xrdr.private.lo:2094//xrd/store/data/Run2016E/DoubleEG/NANOAOD/Nano25Oct2019-v1/30000/6FD2CB21-D462-B147-B5CE-566BC0414B27.root
p1
aVroot://cms-xrdr.private.lo:2094//xrd/store/data/Run2016E/DoubleEG/NANOAOD/Nano25Oct2019-v1/30000/72802465-6C9C-484C-96AF-BCAEE786610B.root
p2
a.