(lp0
Vroot://cms-xrdr.private.lo:2094//xrd/store/data/Run2016H/DoubleEG/NANOAOD/Nano25Oct2019-v1/30000/F2723215-50C6-F044-A5F1-1216D4F6B55D.root
p1
aVroot://cms-xrdr.private.lo:2094//xrd/store/data/Run2016H/DoubleEG/NANOAOD/Nano25Oct2019-v1/30000/F361D4BC-93CD-454A-B28A-7FBB9FE574CE.root
p2
a.