(lp0
Vroot://cms-xrdr.private.lo:2094//xrd/store/data/Run2016G/MuonEG/NANOAOD/Nano1June2019-v1/60000/EE87BFB3-295E-854F-A9E8-7BB4F062D259.root
p1
aVroot://cms-xrdr.private.lo:2094//xrd/store/data/Run2016G/MuonEG/NANOAOD/Nano1June2019-v1/60000/F5BFF6B0-3D1C-DB4A-90A3-9C3EFD338A13.root
p2
a.