(lp0
Vroot://cms-xrdr.private.lo:2094//xrd/store/data/Run2016F/MuonEG/NANOAOD/Nano1June2019-v1/30000/73B7B789-2962-B040-A72B-D41B016DC339.root
p1
aVroot://cms-xrdr.private.lo:2094//xrd/store/data/Run2016F/MuonEG/NANOAOD/Nano1June2019-v1/30000/82A72448-94D8-A640-9401-7CDF1965EF97.root
p2
a.