(lp0
Vroot://cms-xrdr.private.lo:2094//xrd/store/data/Run2016D/DoubleEG/NANOAOD/Nano25Oct2019-v1/40000/AADC022B-55CD-744A-8316-A6D8C0629E7D.root
p1
aVroot://cms-xrdr.private.lo:2094//xrd/store/data/Run2016D/DoubleEG/NANOAOD/Nano25Oct2019-v1/40000/B2D9CC3D-64FF-2D4F-BA38-D9E8B0984250.root
p2
a.