(lp0
Vroot://cms-xrdr.private.lo:2094//xrd/store/data/Run2016B_ver2/DoubleEG/NANOAOD/Nano25Oct2019_ver2-v1/240000/6A1E4656-857E-9E44-B375-1AFBBD178E2A.root
p1
aVroot://cms-xrdr.private.lo:2094//xrd/store/data/Run2016B_ver2/DoubleEG/NANOAOD/Nano25Oct2019_ver2-v1/240000/6BE75A93-DA54-3C48-B35C-32A5475399A2.root
p2
a.