(lp0
Vroot://cms-xrdr.private.lo:2094//xrd/store/data/Run2016H/MuonEG/NANOAOD/Nano1June2019-v1/30000/CDDE468B-0D61-2A4E-BC5D-2C2C4FFEF0D3.root
p1
aVroot://cms-xrdr.private.lo:2094//xrd/store/data/Run2016H/MuonEG/NANOAOD/Nano1June2019-v1/30000/E1F08F63-1DD9-FE42-9486-83A90C8ACDDD.root
p2
a.