(lp0
Vroot://cms-xrdr.private.lo:2094//xrd/store/data/Run2016H/DoubleEG/NANOAOD/Nano25Oct2019-v1/30000/EDF88A29-6827-F844-80AC-BFA771FFE97C.root
p1
aVroot://cms-xrdr.private.lo:2094//xrd/store/data/Run2016H/DoubleEG/NANOAOD/Nano25Oct2019-v1/30000/EF7586B7-D3E8-F94B-95FE-0780474C1C19.root
p2
a.