(lp0
Vroot://cms-xrdr.private.lo:2094//xrd/store/data/Run2016D/MuonEG/NANOAOD/Nano1June2019-v1/240000/82488EDC-3FC4-564F-A8DA-A8BE9AEA2620.root
p1
aVroot://cms-xrdr.private.lo:2094//xrd/store/data/Run2016D/MuonEG/NANOAOD/Nano1June2019-v1/240000/92CB8DF4-347B-A74E-BA96-60256B06B44B.root
p2
a.