(lp0
Vroot://cms-xrdr.private.lo:2094//xrd/store/data/Run2016C/DoubleEG/NANOAOD/Nano25Oct2019-v1/40000/6A0210B2-1F95-5345-9526-A34DA60E86AB.root
p1
aVroot://cms-xrdr.private.lo:2094//xrd/store/data/Run2016C/DoubleEG/NANOAOD/Nano25Oct2019-v1/40000/6DECCBFF-09A6-E641-96C5-AC9495ECDE23.root
p2
a.