(lp0
Vroot://cms-xrdr.private.lo:2094//xrd/store/data/Run2016E/DoubleEG/NANOAOD/Nano25Oct2019-v1/30000/88CF1F95-8DC7-D243-BC03-649BECD4C8CD.root
p1
aVroot://cms-xrdr.private.lo:2094//xrd/store/data/Run2016E/DoubleEG/NANOAOD/Nano25Oct2019-v1/30000/9709EBB3-0C1B-AB46-B56F-2C82D0E47110.root
p2
a.