(lp0
Vroot://cms-xrdr.private.lo:2094//xrd/store/data/Run2016C/DoubleEG/NANOAOD/Nano25Oct2019-v1/40000/C9CE442A-AD54-6C4B-BBFD-3F3289E7411F.root
p1
aVroot://cms-xrdr.private.lo:2094//xrd/store/data/Run2016C/DoubleEG/NANOAOD/Nano25Oct2019-v1/40000/DC3448D8-F4CE-EC4E-90D4-D6F696027B46.root
p2
a.