(lp0
Vroot://cms-xrdr.private.lo:2094//xrd/store/data/Run2016E/MuonEG/NANOAOD/Nano1June2019-v3/40000/87CD858F-17C6-424E-99F3-5470399609AC.root
p1
aVroot://cms-xrdr.private.lo:2094//xrd/store/data/Run2016E/MuonEG/NANOAOD/Nano1June2019-v3/40000/8B7C22A7-F29A-C548-A21F-A12B5BFD9994.root
p2
a.