(lp0
Vroot://cms-xrdr.private.lo:2094//xrd/store/data/Run2016B_ver2/MuonEG/NANOAOD/Nano25Oct2019_ver2-v1/40000/366E8B08-4F87-E34D-B1EC-B9E38DA093D0.root
p1
aVroot://cms-xrdr.private.lo:2094//xrd/store/data/Run2016B_ver2/MuonEG/NANOAOD/Nano25Oct2019_ver2-v1/40000/3BC6BDEC-0CE0-CE4E-8309-B6E6AF3FC019.root
p2
a.