(lp0
Vroot://cms-xrdr.private.lo:2094//xrd/store/data/Run2016B_ver2/MuonEG/NANOAOD/Nano25Oct2019_ver2-v1/40000/C60C8D58-EE7F-1F4A-A6F1-E8F29E1EFA5A.root
p1
aVroot://cms-xrdr.private.lo:2094//xrd/store/data/Run2016B_ver2/MuonEG/NANOAOD/Nano25Oct2019_ver2-v1/40000/CCBBCF0D-8F54-4B44-9D37-C0556FE69B08.root
p2
a.