(lp0
Vroot://cms-xrdr.private.lo:2094//xrd/store/data/Run2016G/MuonEG/NANOAOD/Nano1June2019-v1/60000/30586581-23E5-5146-986D-8A962A8504E3.root
p1
aVroot://cms-xrdr.private.lo:2094//xrd/store/data/Run2016G/MuonEG/NANOAOD/Nano1June2019-v1/60000/4CCBDC65-9058-8A47-BB47-16B9452C2ECB.root
p2
a.