(lp0
Vroot://cms-xrdr.private.lo:2094//xrd/store/data/Run2016G/DoubleEG/NANOAOD/Nano25Oct2019-v1/40000/D70D765B-9D98-5F45-8BD7-D9636BEB5AD5.root
p1
aVroot://cms-xrdr.private.lo:2094//xrd/store/data/Run2016G/DoubleEG/NANOAOD/Nano25Oct2019-v1/40000/D8125F4D-DE4B-B24B-98BD-22B606B906C9.root
p2
a.