(lp0
Vroot://cms-xrdr.private.lo:2094//xrd/store/data/Run2016B_ver2/MuonEG/NANOAOD/Nano25Oct2019_ver2-v1/40000/4C5E2F94-E4D1-814F-8191-08EA4B08065A.root
p1
aVroot://cms-xrdr.private.lo:2094//xrd/store/data/Run2016B_ver2/MuonEG/NANOAOD/Nano25Oct2019_ver2-v1/40000/4CED9456-09FF-2D40-8690-266885045F27.root
p2
a.