(lp0
Vroot://cms-xrdr.private.lo:2094//xrd/store/data/Run2016E/DoubleEG/NANOAOD/Nano25Oct2019-v1/30000/82D2CA56-ED64-BB42-9B27-EA8D6A69D3AF.root
p1
aVroot://cms-xrdr.private.lo:2094//xrd/store/data/Run2016E/DoubleEG/NANOAOD/Nano25Oct2019-v1/30000/86A8599A-3111-8F4C-8A43-2503FD27B220.root
p2
a.