(lp0
Vroot://cms-xrdr.private.lo:2094//xrd/store/data/Run2016E/MuonEG/NANOAOD/Nano1June2019-v3/40000/ADD85A76-F32E-994B-B70A-ADE1B6E7687D.root
p1
aVroot://cms-xrdr.private.lo:2094//xrd/store/data/Run2016E/MuonEG/NANOAOD/Nano1June2019-v3/40000/B611D33A-CD37-BC47-93AF-A8D989FFB9EE.root
p2
a.