(lp0
Vroot://cms-xrdr.private.lo:2094//xrd/store/data/Run2016D/MuonEG/NANOAOD/Nano1June2019-v1/240000/67A7976B-C564-4E48-ADD8-619B4CC71ABD.root
p1
aVroot://cms-xrdr.private.lo:2094//xrd/store/data/Run2016D/MuonEG/NANOAOD/Nano1June2019-v1/240000/79D4954E-F2CA-4F42-862D-DF2543E28D45.root
p2
a.