(lp0
Vroot://cms-xrdr.private.lo:2094//xrd/store/data/Run2016C/DoubleEG/NANOAOD/Nano25Oct2019-v1/40000/E0CA77BA-16D8-914B-AD56-1FD0A9C06153.root
p1
aVroot://cms-xrdr.private.lo:2094//xrd/store/data/Run2016C/DoubleEG/NANOAOD/Nano25Oct2019-v1/40000/EB7EB51B-A721-C541-A8E8-D3C232DC8B6B.root
p2
a.