(lp0
Vroot://cms-xrdr.private.lo:2094//xrd/store/data/Run2016G/DoubleEG/NANOAOD/Nano25Oct2019-v1/230000/5A2A6BB1-1C91-5445-82AC-5FC0D2BBC1A1.root
p1
aVroot://cms-xrdr.private.lo:2094//xrd/store/data/Run2016G/DoubleEG/NANOAOD/Nano25Oct2019-v1/230000/6AAA4DDB-506E-604E-953F-9C579CFB2A40.root
p2
a.