(lp0
Vroot://cms-xrdr.private.lo:2094//xrd/store/data/Run2016B_ver2/DoubleEG/NANOAOD/Nano25Oct2019_ver2-v1/240000/81381056-A5F3-7A4E-842D-77CEF0CC4300.root
p1
aVroot://cms-xrdr.private.lo:2094//xrd/store/data/Run2016B_ver2/DoubleEG/NANOAOD/Nano25Oct2019_ver2-v1/240000/87CE03C0-F441-1045-B45C-CDF90F809D7A.root
p2
a.