(lp0
Vroot://cms-xrdr.private.lo:2094//xrd/store/data/Run2016H/DoubleEG/NANOAOD/Nano25Oct2019-v1/30000/43B8ED04-9966-7240-96E5-5DA7C9D94443.root
p1
aVroot://cms-xrdr.private.lo:2094//xrd/store/data/Run2016H/DoubleEG/NANOAOD/Nano25Oct2019-v1/30000/45C255A8-61CA-E84C-A6F5-0CEF036937E7.root
p2
a.