(lp0
Vroot://cms-xrdr.private.lo:2094//xrd/store/data/Run2016E/MuonEG/NANOAOD/Nano1June2019-v3/40000/2F8A53BA-365B-7C4F-A829-3B7F73014986.root
p1
aVroot://cms-xrdr.private.lo:2094//xrd/store/data/Run2016E/MuonEG/NANOAOD/Nano1June2019-v3/40000/45CB5CB6-3D36-0146-8E21-AFD6C7087333.root
p2
a.