(lp0
Vroot://cms-xrdr.private.lo:2094//xrd/store/data/Run2016B_ver2/DoubleEG/NANOAOD/Nano25Oct2019_ver2-v1/240000/5AAF8D7F-3CEA-3543-B8EA-1DF14AE7FBAB.root
p1
aVroot://cms-xrdr.private.lo:2094//xrd/store/data/Run2016B_ver2/DoubleEG/NANOAOD/Nano25Oct2019_ver2-v1/240000/6044F7CB-9CA9-CA49-ABC9-221302F8CBCF.root
p2
a.