(lp0
Vroot://cms-xrdr.private.lo:2094//xrd/store/data/Run2016G/DoubleEG/NANOAOD/Nano25Oct2019-v1/230000/4E450AE9-3C7B-A74C-B311-F0D9A6858A47.root
p1
aVroot://cms-xrdr.private.lo:2094//xrd/store/data/Run2016G/DoubleEG/NANOAOD/Nano25Oct2019-v1/230000/52A71D26-BBC5-0F4E-B897-832E8B1DC1D0.root
p2
a.