(lp0
Vroot://cms-xrdr.private.lo:2094//xrd/store/data/Run2016D/MuonEG/NANOAOD/Nano1June2019-v1/240000/BD596B87-EDF8-9D4A-B03F-365B9C15A176.root
p1
aVroot://cms-xrdr.private.lo:2094//xrd/store/data/Run2016D/MuonEG/NANOAOD/Nano1June2019-v1/240000/BD7905D5-0C38-114C-B600-F6204651A5DA.root
p2
a.