(lp0
Vroot://cms-xrdr.private.lo:2094//xrd/store/data/Run2016G/DoubleMuon/NANOAOD/Nano25Oct2019-v1/240000/6E659BFD-AE7C-B94F-AB42-4220004F2A8D.root
p1
aVroot://cms-xrdr.private.lo:2094//xrd/store/data/Run2016G/DoubleMuon/NANOAOD/Nano25Oct2019-v1/240000/74E53BD8-0B2E-9E45-B13E-CE1324E374B3.root
p2
a.