(lp0
Vroot://cms-xrdr.private.lo:2094//xrd/store/data/Run2016E/MuonEG/NANOAOD/Nano1June2019-v3/40000/B904B6F0-A898-A64C-A9E3-AB034AE15579.root
p1
aVroot://cms-xrdr.private.lo:2094//xrd/store/data/Run2016E/MuonEG/NANOAOD/Nano1June2019-v3/40000/D2D5FBF1-1AEF-C147-8359-5E04752827F5.root
p2
a.