(lp0
Vroot://cms-xrdr.private.lo:2094//xrd/store/data/Run2016E/MuonEG/NANOAOD/Nano1June2019-v3/40000/80F8328C-61BE-D64D-970E-DD67A91FB59C.root
p1
aVroot://cms-xrdr.private.lo:2094//xrd/store/data/Run2016E/MuonEG/NANOAOD/Nano1June2019-v3/40000/8245F4DD-2A04-A54A-9414-01414C0AEBB5.root
p2
a.