(lp0
Vroot://cms-xrdr.private.lo:2094//xrd/store/data/Run2016B_ver2/DoubleEG/NANOAOD/Nano25Oct2019_ver2-v1/240000/DCFFC3F0-6ACA-7A43-906B-26B73BF5C8DC.root
p1
aVroot://cms-xrdr.private.lo:2094//xrd/store/data/Run2016B_ver2/DoubleEG/NANOAOD/Nano25Oct2019_ver2-v1/240000/E04B9605-9819-5B47-9DB9-C944975036C5.root
p2
a.