(lp0
Vroot://cms-xrdr.private.lo:2094//xrd/store/data/Run2016G/DoubleEG/NANOAOD/Nano25Oct2019-v1/230000/B0B0805D-C404-434E-B943-6186B5ACDCFD.root
p1
aVroot://cms-xrdr.private.lo:2094//xrd/store/data/Run2016G/DoubleEG/NANOAOD/Nano25Oct2019-v1/230000/CE15749E-1CD9-C54E-BB37-CACC8EADFB24.root
p2
a.