(lp0
Vroot://cms-xrdr.private.lo:2094//xrd/store/data/Run2016H/MuonEG/NANOAOD/Nano1June2019-v1/30000/23FBEC0D-F5B1-A343-8DBE-0DF1D42353D5.root
p1
aVroot://cms-xrdr.private.lo:2094//xrd/store/data/Run2016H/MuonEG/NANOAOD/Nano1June2019-v1/30000/2ABE7856-B18C-E94B-AC38-2841C30CAD38.root
p2
a.