(lp0
Vroot://cms-xrdr.private.lo:2094//xrd/store/data/Run2016B_ver2/MuonEG/NANOAOD/Nano25Oct2019_ver2-v1/40000/56501234-2955-5E49-BD59-595B698A6F2C.root
p1
aVroot://cms-xrdr.private.lo:2094//xrd/store/data/Run2016B_ver2/MuonEG/NANOAOD/Nano25Oct2019_ver2-v1/40000/574E9C74-E74D-A04E-8585-328C06C6943F.root
p2
a.