(lp0
Vroot://cms-xrdr.private.lo:2094//xrd/store/data/Run2016H/DoubleEG/NANOAOD/Nano25Oct2019-v1/30000/A4E7AD45-6FA8-E74D-A8F0-A478D38AD9FC.root
p1
aVroot://cms-xrdr.private.lo:2094//xrd/store/data/Run2016H/DoubleEG/NANOAOD/Nano25Oct2019-v1/30000/B03D8BD3-92D3-5F4D-B52A-F6C0376FD3DD.root
p2
a.