(lp0
Vroot://cms-xrdr.private.lo:2094//xrd/store/data/Run2016E/DoubleEG/NANOAOD/Nano25Oct2019-v1/30000/D0EC488A-A656-824B-BFE3-C621A5C14BAA.root
p1
aVroot://cms-xrdr.private.lo:2094//xrd/store/data/Run2016E/DoubleEG/NANOAOD/Nano25Oct2019-v1/30000/D466F83E-BA30-B947-8B25-06AB7A0BBB8E.root
p2
a.