(lp0
Vroot://cms-xrdr.private.lo:2094//xrd/store/data/Run2016D/DoubleEG/NANOAOD/Nano25Oct2019-v1/40000/B59BE92C-16BB-B440-9D0D-078CB568A0E7.root
p1
aVroot://cms-xrdr.private.lo:2094//xrd/store/data/Run2016D/DoubleEG/NANOAOD/Nano25Oct2019-v1/40000/C8BF3B11-B49A-3146-8192-593C6CDF2135.root
p2
a.