(lp0
Vroot://cms-xrdr.private.lo:2094//xrd/store/data/Run2016G/MuonEG/NANOAOD/Nano1June2019-v1/60000/0E5AC673-9DB9-E240-8BED-6E335F4BD2DB.root
p1
aVroot://cms-xrdr.private.lo:2094//xrd/store/data/Run2016G/MuonEG/NANOAOD/Nano1June2019-v1/60000/2D24E989-B8F3-2D4A-BACA-ABE66980A1FB.root
p2
a.