(lp0
Vroot://cms-xrdr.private.lo:2094//xrd/store/data/Run2016D/DoubleEG/NANOAOD/Nano25Oct2019-v1/40000/95CFD353-3BD1-C045-83F3-8CCB3C5A83B6.root
p1
aVroot://cms-xrdr.private.lo:2094//xrd/store/data/Run2016D/DoubleEG/NANOAOD/Nano25Oct2019-v1/40000/A609565C-609C-9445-BC87-21E472D6B030.root
p2
a.