(lp0
Vroot://cms-xrdr.private.lo:2094//xrd/store/data/Run2016H/DoubleEG/NANOAOD/Nano25Oct2019-v1/30000/8032BDC9-7E51-7D46-A750-DA8F6E30ABCA.root
p1
aVroot://cms-xrdr.private.lo:2094//xrd/store/data/Run2016H/DoubleEG/NANOAOD/Nano25Oct2019-v1/30000/84A591E1-AE34-C74E-A1B0-FE2A8445ACE5.root
p2
a.