(lp0
Vroot://cms-xrdr.private.lo:2094//xrd/store/data/Run2016E/DoubleEG/NANOAOD/Nano25Oct2019-v1/30000/4F4420DC-D34D-F445-800C-9C5446D4AEF9.root
p1
aVroot://cms-xrdr.private.lo:2094//xrd/store/data/Run2016E/DoubleEG/NANOAOD/Nano25Oct2019-v1/30000/536BE737-E06A-2343-9855-4EF27AEC7348.root
p2
a.