(lp0
Vroot://cms-xrdr.private.lo:2094//xrd/store/data/Run2016H/DoubleEG/NANOAOD/Nano25Oct2019-v1/30000/1710FE86-8A30-CC49-B817-7633C29B26B1.root
p1
aVroot://cms-xrdr.private.lo:2094//xrd/store/data/Run2016H/DoubleEG/NANOAOD/Nano25Oct2019-v1/30000/19F6994C-7315-5340-B859-B8F5C9E01FE9.root
p2
a.