(lp0
Vroot://cms-xrdr.private.lo:2094//xrd/store/data/Run2016D/MuonEG/NANOAOD/Nano1June2019-v1/240000/9935A5BA-5F79-2D43-8C36-34F4F594411D.root
p1
aVroot://cms-xrdr.private.lo:2094//xrd/store/data/Run2016D/MuonEG/NANOAOD/Nano1June2019-v1/240000/A5A5DA48-379B-5F45-939F-FEDDECE69519.root
p2
a.