(lp0
Vroot://cms-xrdr.private.lo:2094//xrd/store/data/Run2016C/MuonEG/NANOAOD/Nano1June2019-v1/60000/0CF8B124-9E04-D64D-B9E6-990554289B54.root
p1
aVroot://cms-xrdr.private.lo:2094//xrd/store/data/Run2016C/MuonEG/NANOAOD/Nano1June2019-v1/60000/18AC6090-CCD5-2840-96E0-27AB261C1BC2.root
p2
a.