(lp0
Vroot://cms-xrdr.private.lo:2094//xrd/store/data/Run2016F/MuonEG/NANOAOD/Nano1June2019-v1/30000/34316B70-3730-194A-AE22-F95962F14E16.root
p1
aVroot://cms-xrdr.private.lo:2094//xrd/store/data/Run2016F/MuonEG/NANOAOD/Nano1June2019-v1/30000/3AE49E7D-BC81-4B41-96A2-6CF56C1E47D2.root
p2
a.