(lp0
Vroot://cms-xrdr.private.lo:2094//xrd/store/data/Run2016G/MuonEG/NANOAOD/Nano1June2019-v1/60000/7FDC79B6-C0A7-9B4F-B2A4-B5FA26DDCF1C.root
p1
aVroot://cms-xrdr.private.lo:2094//xrd/store/data/Run2016G/MuonEG/NANOAOD/Nano1June2019-v1/60000/8598404D-0D13-3546-853E-B575DBA111C9.root
p2
a.