(lp0
Vroot://cms-xrdr.private.lo:2094//xrd/store/data/Run2016H/MuonEG/NANOAOD/Nano1June2019-v1/30000/12DA1759-91EF-ED4C-8CB1-9BAF6D64566E.root
p1
aVroot://cms-xrdr.private.lo:2094//xrd/store/data/Run2016H/MuonEG/NANOAOD/Nano1June2019-v1/30000/1FA9FBCF-7C64-A145-8276-22FCEC9E48E6.root
p2
a.