(lp0
Vroot://cms-xrdr.private.lo:2094//xrd/store/data/Run2016D/DoubleEG/NANOAOD/Nano25Oct2019-v1/40000/68D705EC-EF66-BB45-9B68-9F2FB9DC9169.root
p1
aVroot://cms-xrdr.private.lo:2094//xrd/store/data/Run2016D/DoubleEG/NANOAOD/Nano25Oct2019-v1/40000/69F90FF3-8F0E-BE41-B2B7-AF9DDE5E56C4.root
p2
a.