(lp0
Vroot://cms-xrdr.private.lo:2094//xrd/store/data/Run2016F/DoubleEG/NANOAOD/Nano25Oct2019-v1/240000/7102EA47-0500-9848-A2C3-A3A52BB3F53D.root
p1
aVroot://cms-xrdr.private.lo:2094//xrd/store/data/Run2016F/DoubleEG/NANOAOD/Nano25Oct2019-v1/240000/7CCB061B-39D7-1F42-8B2C-AF9A860E4249.root
p2
a.