(lp0
Vroot://cms-xrdr.private.lo:2094//xrd/store/data/Run2016C/DoubleEG/NANOAOD/Nano25Oct2019-v1/40000/3A9514B6-2B15-1341-8A49-2303ADFBDEE0.root
p1
aVroot://cms-xrdr.private.lo:2094//xrd/store/data/Run2016C/DoubleEG/NANOAOD/Nano25Oct2019-v1/40000/485AB7F8-2DC8-654A-B881-859D33BA123E.root
p2
a.