(lp0
Vroot://cms-xrdr.private.lo:2094//xrd/store/data/Run2016F/DoubleEG/NANOAOD/Nano25Oct2019-v1/240000/BBC883D6-5777-8F42-8560-325F2FFA8322.root
p1
aVroot://cms-xrdr.private.lo:2094//xrd/store/data/Run2016F/DoubleEG/NANOAOD/Nano25Oct2019-v1/240000/BCE57822-F9E8-554D-87B0-E0C21295FFC3.root
p2
a.