(lp0
Vroot://cms-xrdr.private.lo:2094//xrd/store/data/Run2016E/MuonEG/NANOAOD/Nano1June2019-v3/40000/1630DFD0-A944-274D-A4F9-55E6DE6D4FCD.root
p1
aVroot://cms-xrdr.private.lo:2094//xrd/store/data/Run2016E/MuonEG/NANOAOD/Nano1June2019-v3/40000/1D228DF9-53BC-5143-B6A2-DB125B7DF461.root
p2
a.