(lp0
Vroot://cms-xrdr.private.lo:2094//xrd/store/data/Run2016G/DoubleMuon/NANOAOD/Nano25Oct2019-v1/240000/867E4A42-2C12-404A-81C8-1E70B1A6CE26.root
p1
aVroot://cms-xrdr.private.lo:2094//xrd/store/data/Run2016G/DoubleMuon/NANOAOD/Nano25Oct2019-v1/240000/891769CF-7424-BE4F-96E3-C2DE088AC0BF.root
p2
a.