(lp0
Vroot://cms-xrdr.private.lo:2094//xrd/store/data/Run2016C/DoubleEG/NANOAOD/Nano25Oct2019-v1/40000/A7FF5157-0BE2-1E41-9CE6-BB7BC44B65B5.root
p1
aVroot://cms-xrdr.private.lo:2094//xrd/store/data/Run2016C/DoubleEG/NANOAOD/Nano25Oct2019-v1/40000/A946D407-D94F-B249-A926-CDCA605B1B80.root
p2
a.