(lp0
Vroot://cms-xrdr.private.lo:2094//xrd/store/data/Run2016H/DoubleEG/NANOAOD/Nano25Oct2019-v1/30000/6CB1D12F-AF80-3340-B9C0-1D8AC77ACA07.root
p1
aVroot://cms-xrdr.private.lo:2094//xrd/store/data/Run2016H/DoubleEG/NANOAOD/Nano25Oct2019-v1/30000/6CCE7A15-BCFD-344C-9641-A3F831995258.root
p2
a.