(lp0
Vroot://cms-xrdr.private.lo:2094//xrd/store/data/Run2016G/DoubleMuon/NANOAOD/Nano25Oct2019-v1/240000/E4FED47F-4D49-5B47-8FFE-B45F32916465.root
p1
aVroot://cms-xrdr.private.lo:2094//xrd/store/data/Run2016G/DoubleMuon/NANOAOD/Nano25Oct2019-v1/240000/EAD328C4-58EC-EE44-AABE-0ADB5CAB018B.root
p2
a.