(lp0
Vroot://cms-xrdr.private.lo:2094//xrd/store/data/Run2016G/MuonEG/NANOAOD/Nano1June2019-v1/60000/6F0D98FB-8954-CA4F-9F8C-3EF2CF668AAE.root
p1
aVroot://cms-xrdr.private.lo:2094//xrd/store/data/Run2016G/MuonEG/NANOAOD/Nano1June2019-v1/60000/79E5EF26-7455-5647-8D1C-EEF8ABCB1C7E.root
p2
a.