(lp0
Vroot://cms-xrdr.private.lo:2094//xrd/store/data/Run2016F/DoubleEG/NANOAOD/Nano25Oct2019-v1/240000/B3B66EFF-255B-F349-A2F0-CE5CB3E26C48.root
p1
aVroot://cms-xrdr.private.lo:2094//xrd/store/data/Run2016F/DoubleEG/NANOAOD/Nano25Oct2019-v1/240000/B66EFA64-6411-5A47-ADA6-F628C59DE2C8.root
p2
a.