(lp0
Vroot://cms-xrdr.private.lo:2094//xrd/store/data/Run2016G/DoubleEG/NANOAOD/Nano25Oct2019-v1/40000/446473E0-D18D-2F4D-ADC0-C5676CFAFF88.root
p1
aVroot://cms-xrdr.private.lo:2094//xrd/store/data/Run2016G/DoubleEG/NANOAOD/Nano25Oct2019-v1/40000/4DF95926-372F-6041-95ED-268E76666BC3.root
p2
a.