(lp0
Vroot://cms-xrdr.private.lo:2094//xrd/store/data/Run2016D/MuonEG/NANOAOD/Nano1June2019-v1/240000/933A41E2-25D6-B043-8C95-6EE0524A245E.root
p1
aVroot://cms-xrdr.private.lo:2094//xrd/store/data/Run2016D/MuonEG/NANOAOD/Nano1June2019-v1/240000/96BC0AFC-8814-9B48-B1ED-053534C72850.root
p2
a.