(lp0
Vroot://cms-xrdr.private.lo:2094//xrd/store/data/Run2016F/MuonEG/NANOAOD/Nano1June2019-v1/30000/610AE1D7-9D89-CD4E-9729-D6EA8E5E6A62.root
p1
aVroot://cms-xrdr.private.lo:2094//xrd/store/data/Run2016F/MuonEG/NANOAOD/Nano1June2019-v1/30000/6232772E-CF4C-5E4E-9485-662E192A9133.root
p2
a.