(lp0
Vroot://cms-xrdr.private.lo:2094//xrd/store/data/Run2016E/MuonEG/NANOAOD/Nano1June2019-v3/40000/21BEB2CE-A383-C946-82DF-776BC8656B26.root
p1
aVroot://cms-xrdr.private.lo:2094//xrd/store/data/Run2016E/MuonEG/NANOAOD/Nano1June2019-v3/40000/23EE13E8-1E51-5842-BE6A-9CF4D33F5BD6.root
p2
a.