(lp0
Vroot://cms-xrdr.private.lo:2094//xrd/store/data/Run2016D/DoubleEG/NANOAOD/Nano25Oct2019-v1/40000/6C3EF19F-8588-8942-A6DF-D9FC9F6F1E26.root
p1
aVroot://cms-xrdr.private.lo:2094//xrd/store/data/Run2016D/DoubleEG/NANOAOD/Nano25Oct2019-v1/40000/70F951C0-F17F-FD4B-8155-2B7F6A1530A4.root
p2
a.