(lp0
Vroot://cms-xrdr.private.lo:2094//xrd/store/data/Run2016G/DoubleEG/NANOAOD/Nano25Oct2019-v1/20000/077FD63F-DD22-7041-9BDA-E1704017DDC3.root
p1
aVroot://cms-xrdr.private.lo:2094//xrd/store/data/Run2016G/DoubleEG/NANOAOD/Nano25Oct2019-v1/20000/0B0B2E32-B8B4-3A49-9F95-1F027F623C36.root
p2
a.