(lp0
Vroot://cms-xrdr.private.lo:2094//xrd/store/data/Run2016G/DoubleEG/NANOAOD/Nano25Oct2019-v1/230000/9C5C3EEA-7F0B-704D-909E-4E0F1AB4FF15.root
p1
aVroot://cms-xrdr.private.lo:2094//xrd/store/data/Run2016G/DoubleEG/NANOAOD/Nano25Oct2019-v1/230000/9F1E6138-9B09-634D-8B54-3C2E21BBEE95.root
p2
a.