(lp0
Vroot://cms-xrdr.private.lo:2094//xrd/store/data/Run2016H/DoubleEG/NANOAOD/Nano25Oct2019-v1/30000/7A166B15-FA05-A542-9DD0-5C12DA6D30E6.root
p1
aVroot://cms-xrdr.private.lo:2094//xrd/store/data/Run2016H/DoubleEG/NANOAOD/Nano25Oct2019-v1/30000/7B464A34-E6DF-FF49-8DFE-223236858B19.root
p2
a.