(lp0
Vroot://cms-xrdr.private.lo:2094//xrd/store/data/Run2016E/MuonEG/NANOAOD/Nano1June2019-v3/40000/8D3CA25E-B415-E941-88E5-F08693171EA8.root
p1
aVroot://cms-xrdr.private.lo:2094//xrd/store/data/Run2016E/MuonEG/NANOAOD/Nano1June2019-v3/40000/99CAAB24-AE7C-9C49-89CC-E9B265FE6013.root
p2
a.