(lp0
Vroot://cms-xrdr.private.lo:2094//xrd/store/data/Run2016H/DoubleEG/NANOAOD/Nano25Oct2019-v1/30000/CBE13B0B-26EA-A649-8E0F-482CB35A5EC7.root
p1
aVroot://cms-xrdr.private.lo:2094//xrd/store/data/Run2016H/DoubleEG/NANOAOD/Nano25Oct2019-v1/30000/CDF07509-AF4B-2847-83D8-E2A95AECC150.root
p2
a.