(lp0
Vroot://cms-xrdr.private.lo:2094//xrd/store/data/Run2016H/MuonEG/NANOAOD/Nano1June2019-v1/30000/384DB892-2DB1-FD4C-A6A4-40357F7A909D.root
p1
aVroot://cms-xrdr.private.lo:2094//xrd/store/data/Run2016H/MuonEG/NANOAOD/Nano1June2019-v1/30000/63ABD816-7EF0-2D4D-82CF-4187FDF814D1.root
p2
a.