(lp0
Vroot://cms-xrdr.private.lo:2094//xrd/store/data/Run2016G/DoubleEG/NANOAOD/Nano25Oct2019-v1/40000/80A042D0-6826-4A4F-B673-D2BEED81D282.root
p1
aVroot://cms-xrdr.private.lo:2094//xrd/store/data/Run2016G/DoubleEG/NANOAOD/Nano25Oct2019-v1/40000/8104F782-3050-5249-A9DF-0C40A5001931.root
p2
a.