(lp0
Vroot://cms-xrdr.private.lo:2094//xrd/store/data/Run2016F/DoubleEG/NANOAOD/Nano25Oct2019-v1/240000/A270AE74-5061-5049-A257-BCDB19EC3DC1.root
p1
aVroot://cms-xrdr.private.lo:2094//xrd/store/data/Run2016F/DoubleEG/NANOAOD/Nano25Oct2019-v1/240000/A2D5DDBB-0826-A24C-8F22-43339B35C04F.root
p2
a.