(lp0
Vroot://cms-xrdr.private.lo:2094//xrd/store/data/Run2016F/DoubleEG/NANOAOD/Nano25Oct2019-v1/240000/6D3B5E24-C5C7-F645-8647-CFA93839369B.root
p1
aVroot://cms-xrdr.private.lo:2094//xrd/store/data/Run2016F/DoubleEG/NANOAOD/Nano25Oct2019-v1/240000/6EB28A67-FAC1-BD43-AE6A-E18852AD8192.root
p2
a.