(lp0
Vroot://cms-xrdr.private.lo:2094//xrd/store/data/Run2016C/DoubleEG/NANOAOD/Nano25Oct2019-v1/40000/2898D842-7EFF-AF43-9CA6-3A427AA60F0D.root
p1
aVroot://cms-xrdr.private.lo:2094//xrd/store/data/Run2016C/DoubleEG/NANOAOD/Nano25Oct2019-v1/40000/299B932A-54B6-AC4B-A14D-FE3152A86353.root
p2
a.