(lp0
Vroot://cms-xrdr.private.lo:2094//xrd/store/data/Run2016H/MuonEG/NANOAOD/Nano1June2019-v1/30000/05C2C699-960C-2142-B77C-6C6E863409C8.root
p1
aVroot://cms-xrdr.private.lo:2094//xrd/store/data/Run2016H/MuonEG/NANOAOD/Nano1June2019-v1/30000/09A82DE7-D28C-BB45-83E6-8D630714D3A7.root
p2
a.