(lp0
Vroot://cms-xrdr.private.lo:2094//xrd/store/data/Run2016C/MuonEG/NANOAOD/Nano1June2019-v1/60000/AE4673D3-4164-E540-9EE3-C6ABEDBAACD6.root
p1
aVroot://cms-xrdr.private.lo:2094//xrd/store/data/Run2016C/MuonEG/NANOAOD/Nano1June2019-v1/60000/B8731477-919A-5749-AFE7-EB2E680DFDF3.root
p2
a.