(lp0
Vroot://cms-xrdr.private.lo:2094//xrd/store/data/Run2016E/DoubleEG/NANOAOD/Nano25Oct2019-v1/30000/DA9AA483-46BF-5347-95DA-8A2D4BA154E6.root
p1
aVroot://cms-xrdr.private.lo:2094//xrd/store/data/Run2016E/DoubleEG/NANOAOD/Nano25Oct2019-v1/30000/E070ACEC-0349-B44F-948D-B8B1DBD7561E.root
p2
a.