(lp0
Vroot://cms-xrdr.private.lo:2094//xrd/store/data/Run2016E/DoubleEG/NANOAOD/Nano25Oct2019-v1/30000/E5BCE604-E272-6E4C-BEBF-1AA0E4F13C6A.root
p1
aVroot://cms-xrdr.private.lo:2094//xrd/store/data/Run2016E/DoubleEG/NANOAOD/Nano25Oct2019-v1/30000/E98F254C-3FE2-254E-B665-20BB54601F5A.root
p2
a.