(lp0
Vroot://cms-xrdr.private.lo:2094//xrd/store/data/Run2016C/DoubleEG/NANOAOD/Nano25Oct2019-v1/40000/C0E27273-63F9-8846-B118-1E1C94A18A12.root
p1
aVroot://cms-xrdr.private.lo:2094//xrd/store/data/Run2016C/DoubleEG/NANOAOD/Nano25Oct2019-v1/40000/C9A67425-1A1C-AA46-AB00-1B427EF9AB5A.root
p2
a.