(lp0
Vroot://cms-xrdr.private.lo:2094//xrd/store/data/Run2016G/MuonEG/NANOAOD/Nano1June2019-v1/60000/CEEF9127-EC3C-C147-BA63-551D3076B3B2.root
p1
aVroot://cms-xrdr.private.lo:2094//xrd/store/data/Run2016G/MuonEG/NANOAOD/Nano1June2019-v1/60000/E460669A-9024-684A-A8A6-03A9BFB9DB90.root
p2
a.