(lp0
Vroot://cms-xrdr.private.lo:2094//xrd/store/data/Run2016H/DoubleEG/NANOAOD/Nano25Oct2019-v1/30000/C7F08829-C52D-A041-86DA-6F369446D924.root
p1
aVroot://cms-xrdr.private.lo:2094//xrd/store/data/Run2016H/DoubleEG/NANOAOD/Nano25Oct2019-v1/30000/C800EDF8-FB05-4A4D-8406-3FAC58AD1E3B.root
p2
a.