(lp0
Vroot://cms-xrdr.private.lo:2094//xrd/store/data/Run2016F/DoubleEG/NANOAOD/Nano25Oct2019-v1/240000/C41F6B3C-B5AB-1E4F-9B65-A00D8CC15D28.root
p1
aVroot://cms-xrdr.private.lo:2094//xrd/store/data/Run2016F/DoubleEG/NANOAOD/Nano25Oct2019-v1/240000/DB3B1F07-ECC4-114C-8BA9-186B02AB55C9.root
p2
a.