(lp0
Vroot://cms-xrdr.private.lo:2094//xrd/store/data/Run2016H/MuonEG/NANOAOD/Nano1June2019-v1/30000/6F4D1A9A-34B7-684D-963C-8938E7BE5FD6.root
p1
aVroot://cms-xrdr.private.lo:2094//xrd/store/data/Run2016H/MuonEG/NANOAOD/Nano1June2019-v1/30000/7A48466A-56C0-9147-B261-1E74E754F59C.root
p2
a.