(lp0
Vroot://cms-xrdr.private.lo:2094//xrd/store/data/Run2016F/DoubleEG/NANOAOD/Nano25Oct2019-v1/240000/4A51EEB4-D553-E248-A404-254A0D14FD0E.root
p1
aVroot://cms-xrdr.private.lo:2094//xrd/store/data/Run2016F/DoubleEG/NANOAOD/Nano25Oct2019-v1/240000/53700BAE-407A-9241-AB44-0F23CA1D88FD.root
p2
a.