(lp0
Vroot://cms-xrdr.private.lo:2094//xrd/store/data/Run2016B_ver2/MuonEG/NANOAOD/Nano25Oct2019_ver2-v1/40000/72FA2271-6730-2E48-8ECF-61BD1BD6EBA3.root
p1
aVroot://cms-xrdr.private.lo:2094//xrd/store/data/Run2016B_ver2/MuonEG/NANOAOD/Nano25Oct2019_ver2-v1/40000/88F94D43-E04F-B84D-A8BB-00AAF73953A6.root
p2
a.