(lp0
Vroot://cms-xrdr.private.lo:2094//xrd/store/data/Run2016E/MuonEG/NANOAOD/Nano1June2019-v3/40000/57214D4F-7390-5B44-B458-9754A3CEA7A4.root
p1
aVroot://cms-xrdr.private.lo:2094//xrd/store/data/Run2016E/MuonEG/NANOAOD/Nano1June2019-v3/40000/5D5A9FAF-BB55-6F46-9293-A6AD6F149BF3.root
p2
a.