(lp0
Vroot://cms-xrdr.private.lo:2094//xrd/store/data/Run2016G/DoubleEG/NANOAOD/Nano25Oct2019-v1/20000/4011D7B3-3635-AC49-A9AB-9048FD1E5C82.root
p1
aVroot://cms-xrdr.private.lo:2094//xrd/store/data/Run2016G/DoubleEG/NANOAOD/Nano25Oct2019-v1/20000/4BA43701-B53A-2E47-BF8E-CF5171A5F76B.root
p2
a.