(lp0
Vroot://cms-xrdr.private.lo:2094//xrd/store/data/Run2016G/DoubleEG/NANOAOD/Nano25Oct2019-v1/40000/150B47E3-9F2B-0C41-97E6-4244CF6BC152.root
p1
aVroot://cms-xrdr.private.lo:2094//xrd/store/data/Run2016G/DoubleEG/NANOAOD/Nano25Oct2019-v1/40000/1621CA0A-2E91-964F-A98B-0D7CC8529A73.root
p2
a.