(lp0
Vroot://cms-xrdr.private.lo:2094//xrd/store/data/Run2016F/MuonEG/NANOAOD/Nano1June2019-v1/30000/595EDAF1-610E-F341-A8F1-9663D88433E2.root
p1
aVroot://cms-xrdr.private.lo:2094//xrd/store/data/Run2016F/MuonEG/NANOAOD/Nano1June2019-v1/30000/5DEC60F3-6137-A34E-8D3E-F380FB70EF5A.root
p2
a.