(lp0
Vroot://cms-xrdr.private.lo:2094//xrd/store/data/Run2016C/MuonEG/NANOAOD/Nano1June2019-v1/60000/38AA5514-8EB7-2D48-8B06-48AD7095C180.root
p1
aVroot://cms-xrdr.private.lo:2094//xrd/store/data/Run2016C/MuonEG/NANOAOD/Nano1June2019-v1/60000/95D23C9A-88EB-164A-A933-7A78C5CB1F25.root
p2
a.