(lp0
Vroot://cms-xrdr.private.lo:2094//xrd/store/data/Run2016G/MuonEG/NANOAOD/Nano1June2019-v1/60000/04EE594A-A685-E54E-845A-3B04E0F76C5E.root
p1
aVroot://cms-xrdr.private.lo:2094//xrd/store/data/Run2016G/MuonEG/NANOAOD/Nano1June2019-v1/60000/0C340073-03C1-B64F-9872-89A610F33A7A.root
p2
a.