(lp0
Vroot://cms-xrdr.private.lo:2094//xrd/store/data/Run2016D/DoubleEG/NANOAOD/Nano25Oct2019-v1/40000/1646A580-9029-9D4B-8B63-A6C1D0E5B86B.root
p1
aVroot://cms-xrdr.private.lo:2094//xrd/store/data/Run2016D/DoubleEG/NANOAOD/Nano25Oct2019-v1/40000/21810C13-49EE-0445-BF70-51512A1A060F.root
p2
a.